
d:\Codes\projects\eulerCar8.10\application\out\bin\target.elf:     file format elf32-littleriscv


Disassembly of section .text.entry:

03000004 <_start>:
 3000004:	5440006f          	j	3000548 <handle_reset>

03000008 <TrapHandler>:
 3000008:	4880006f          	j	3000490 <TrapVector>
 300000c:	4840006f          	j	3000490 <TrapVector>
 3000010:	4800006f          	j	3000490 <TrapVector>
 3000014:	47c0006f          	j	3000490 <TrapVector>
 3000018:	4780006f          	j	3000490 <TrapVector>
 300001c:	4740006f          	j	3000490 <TrapVector>
 3000020:	4700006f          	j	3000490 <TrapVector>
 3000024:	46c0006f          	j	3000490 <TrapVector>
 3000028:	4680006f          	j	3000490 <TrapVector>
 300002c:	4640006f          	j	3000490 <TrapVector>
 3000030:	4600006f          	j	3000490 <TrapVector>
 3000034:	45c0006f          	j	3000490 <TrapVector>
 3000038:	4580006f          	j	3000490 <TrapVector>
 300003c:	4540006f          	j	3000490 <TrapVector>
 3000040:	4500006f          	j	3000490 <TrapVector>
 3000044:	44c0006f          	j	3000490 <TrapVector>
 3000048:	4480006f          	j	3000490 <TrapVector>
 300004c:	4440006f          	j	3000490 <TrapVector>
 3000050:	4400006f          	j	3000490 <TrapVector>
 3000054:	43c0006f          	j	3000490 <TrapVector>
 3000058:	4380006f          	j	3000490 <TrapVector>
 300005c:	4340006f          	j	3000490 <TrapVector>
 3000060:	4300006f          	j	3000490 <TrapVector>
 3000064:	42c0006f          	j	3000490 <TrapVector>
 3000068:	4280006f          	j	3000490 <TrapVector>
 300006c:	4240006f          	j	3000490 <TrapVector>
 3000070:	2640006f          	j	30002d4 <IntHandler>
 3000074:	2600006f          	j	30002d4 <IntHandler>
 3000078:	25c0006f          	j	30002d4 <IntHandler>
 300007c:	2580006f          	j	30002d4 <IntHandler>
 3000080:	2540006f          	j	30002d4 <IntHandler>
 3000084:	2500006f          	j	30002d4 <IntHandler>
 3000088:	24c0006f          	j	30002d4 <IntHandler>
 300008c:	2480006f          	j	30002d4 <IntHandler>
 3000090:	2440006f          	j	30002d4 <IntHandler>
 3000094:	2400006f          	j	30002d4 <IntHandler>
 3000098:	23c0006f          	j	30002d4 <IntHandler>
 300009c:	2380006f          	j	30002d4 <IntHandler>
 30000a0:	2340006f          	j	30002d4 <IntHandler>
 30000a4:	2300006f          	j	30002d4 <IntHandler>
 30000a8:	22c0006f          	j	30002d4 <IntHandler>
 30000ac:	2280006f          	j	30002d4 <IntHandler>
 30000b0:	2240006f          	j	30002d4 <IntHandler>
 30000b4:	2200006f          	j	30002d4 <IntHandler>
 30000b8:	21c0006f          	j	30002d4 <IntHandler>
 30000bc:	2180006f          	j	30002d4 <IntHandler>
 30000c0:	2140006f          	j	30002d4 <IntHandler>
 30000c4:	2100006f          	j	30002d4 <IntHandler>
 30000c8:	20c0006f          	j	30002d4 <IntHandler>
 30000cc:	2080006f          	j	30002d4 <IntHandler>
 30000d0:	2040006f          	j	30002d4 <IntHandler>
 30000d4:	2000006f          	j	30002d4 <IntHandler>
 30000d8:	1fc0006f          	j	30002d4 <IntHandler>
 30000dc:	1f80006f          	j	30002d4 <IntHandler>
 30000e0:	1f40006f          	j	30002d4 <IntHandler>
 30000e4:	1f00006f          	j	30002d4 <IntHandler>
 30000e8:	1ec0006f          	j	30002d4 <IntHandler>
 30000ec:	1e80006f          	j	30002d4 <IntHandler>
 30000f0:	1e40006f          	j	30002d4 <IntHandler>
 30000f4:	1e00006f          	j	30002d4 <IntHandler>
 30000f8:	1dc0006f          	j	30002d4 <IntHandler>
 30000fc:	1d80006f          	j	30002d4 <IntHandler>
 3000100:	1d40006f          	j	30002d4 <IntHandler>
 3000104:	1d00006f          	j	30002d4 <IntHandler>
 3000108:	1cc0006f          	j	30002d4 <IntHandler>
 300010c:	1c80006f          	j	30002d4 <IntHandler>
 3000110:	1c40006f          	j	30002d4 <IntHandler>
 3000114:	1c00006f          	j	30002d4 <IntHandler>
 3000118:	1bc0006f          	j	30002d4 <IntHandler>
 300011c:	1b80006f          	j	30002d4 <IntHandler>
 3000120:	1b40006f          	j	30002d4 <IntHandler>
 3000124:	1b00006f          	j	30002d4 <IntHandler>
 3000128:	1ac0006f          	j	30002d4 <IntHandler>
 300012c:	1a80006f          	j	30002d4 <IntHandler>
 3000130:	1a40006f          	j	30002d4 <IntHandler>
 3000134:	1a00006f          	j	30002d4 <IntHandler>
 3000138:	19c0006f          	j	30002d4 <IntHandler>
 300013c:	1980006f          	j	30002d4 <IntHandler>
 3000140:	1940006f          	j	30002d4 <IntHandler>
 3000144:	1900006f          	j	30002d4 <IntHandler>
 3000148:	18c0006f          	j	30002d4 <IntHandler>
 300014c:	1880006f          	j	30002d4 <IntHandler>
 3000150:	1840006f          	j	30002d4 <IntHandler>
 3000154:	1800006f          	j	30002d4 <IntHandler>
 3000158:	17c0006f          	j	30002d4 <IntHandler>
 300015c:	1780006f          	j	30002d4 <IntHandler>
 3000160:	1740006f          	j	30002d4 <IntHandler>
 3000164:	1700006f          	j	30002d4 <IntHandler>
 3000168:	16c0006f          	j	30002d4 <IntHandler>
 300016c:	1680006f          	j	30002d4 <IntHandler>
 3000170:	1640006f          	j	30002d4 <IntHandler>
 3000174:	1600006f          	j	30002d4 <IntHandler>
 3000178:	15c0006f          	j	30002d4 <IntHandler>
 300017c:	1580006f          	j	30002d4 <IntHandler>
 3000180:	1540006f          	j	30002d4 <IntHandler>
 3000184:	1500006f          	j	30002d4 <IntHandler>
 3000188:	14c0006f          	j	30002d4 <IntHandler>
 300018c:	1480006f          	j	30002d4 <IntHandler>
 3000190:	1440006f          	j	30002d4 <IntHandler>
 3000194:	1400006f          	j	30002d4 <IntHandler>
 3000198:	13c0006f          	j	30002d4 <IntHandler>
 300019c:	1380006f          	j	30002d4 <IntHandler>
 30001a0:	1340006f          	j	30002d4 <IntHandler>
 30001a4:	1300006f          	j	30002d4 <IntHandler>
 30001a8:	12c0006f          	j	30002d4 <IntHandler>
 30001ac:	1280006f          	j	30002d4 <IntHandler>
 30001b0:	1240006f          	j	30002d4 <IntHandler>
 30001b4:	1200006f          	j	30002d4 <IntHandler>
 30001b8:	11c0006f          	j	30002d4 <IntHandler>
 30001bc:	1180006f          	j	30002d4 <IntHandler>
 30001c0:	1140006f          	j	30002d4 <IntHandler>
 30001c4:	1100006f          	j	30002d4 <IntHandler>
 30001c8:	10c0006f          	j	30002d4 <IntHandler>
 30001cc:	1080006f          	j	30002d4 <IntHandler>
 30001d0:	1040006f          	j	30002d4 <IntHandler>
 30001d4:	1000006f          	j	30002d4 <IntHandler>
 30001d8:	0fc0006f          	j	30002d4 <IntHandler>
 30001dc:	0f80006f          	j	30002d4 <IntHandler>
 30001e0:	0f40006f          	j	30002d4 <IntHandler>
 30001e4:	0f00006f          	j	30002d4 <IntHandler>
 30001e8:	0ec0006f          	j	30002d4 <IntHandler>
 30001ec:	0e80006f          	j	30002d4 <IntHandler>

030001f0 <NmiEntry>:
 30001f0:	f9010113          	addi	sp,sp,-112
 30001f4:	04812023          	sw	s0,64(sp)
 30001f8:	04912223          	sw	s1,68(sp)
 30001fc:	05212423          	sw	s2,72(sp)
 3000200:	05312623          	sw	s3,76(sp)
 3000204:	05412823          	sw	s4,80(sp)
 3000208:	05512a23          	sw	s5,84(sp)
 300020c:	05612c23          	sw	s6,88(sp)
 3000210:	05712e23          	sw	s7,92(sp)
 3000214:	07812023          	sw	s8,96(sp)
 3000218:	07912223          	sw	s9,100(sp)
 300021c:	07a12423          	sw	s10,104(sp)
 3000220:	07b12623          	sw	s11,108(sp)
 3000224:	11010593          	addi	a1,sp,272
 3000228:	06b12823          	sw	a1,112(sp)
 300022c:	06312a23          	sw	gp,116(sp)
 3000230:	06412c23          	sw	tp,120(sp)
 3000234:	34102573          	csrr	a0,mepc
 3000238:	300025f3          	csrr	a1,mstatus
 300023c:	34302673          	csrr	a2,mtval
 3000240:	342026f3          	csrr	a3,mcause
 3000244:	06a12e23          	sw	a0,124(sp)
 3000248:	08b12023          	sw	a1,128(sp)
 300024c:	08c12223          	sw	a2,132(sp)
 3000250:	08d12423          	sw	a3,136(sp)
 3000254:	00010513          	mv	a0,sp
 3000258:	719020ef          	jal	ra,3003170 <SysErrNmiEntry>

0300025c <deadLoop1>:
 300025c:	a001                	j	300025c <deadLoop1>
 300025e:	00000013          	nop

03000262 <TrapEntry>:
 3000262:	f9010113          	addi	sp,sp,-112
 3000266:	04812023          	sw	s0,64(sp)
 300026a:	04912223          	sw	s1,68(sp)
 300026e:	05212423          	sw	s2,72(sp)
 3000272:	05312623          	sw	s3,76(sp)
 3000276:	05412823          	sw	s4,80(sp)
 300027a:	05512a23          	sw	s5,84(sp)
 300027e:	05612c23          	sw	s6,88(sp)
 3000282:	05712e23          	sw	s7,92(sp)
 3000286:	07812023          	sw	s8,96(sp)
 300028a:	07912223          	sw	s9,100(sp)
 300028e:	07a12423          	sw	s10,104(sp)
 3000292:	07b12623          	sw	s11,108(sp)
 3000296:	11010593          	addi	a1,sp,272
 300029a:	06b12823          	sw	a1,112(sp)
 300029e:	06312a23          	sw	gp,116(sp)
 30002a2:	06412c23          	sw	tp,120(sp)
 30002a6:	34102573          	csrr	a0,mepc
 30002aa:	300025f3          	csrr	a1,mstatus
 30002ae:	34302673          	csrr	a2,mtval
 30002b2:	342026f3          	csrr	a3,mcause
 30002b6:	06a12e23          	sw	a0,124(sp)
 30002ba:	08b12023          	sw	a1,128(sp)
 30002be:	08c12223          	sw	a2,132(sp)
 30002c2:	08d12423          	sw	a3,136(sp)
 30002c6:	00010513          	mv	a0,sp
 30002ca:	30047073          	csrci	mstatus,8
 30002ce:	685020ef          	jal	ra,3003152 <SysErrExcEntry>

030002d2 <deadLoop2>:
 30002d2:	a001                	j	30002d2 <deadLoop2>

030002d4 <IntHandler>:
 30002d4:	f6010113          	addi	sp,sp,-160
 30002d8:	00a12623          	sw	a0,12(sp)
 30002dc:	00b12823          	sw	a1,16(sp)
 30002e0:	a8618513          	addi	a0,gp,-1402 # 4000170 <g_RiscvPrivMode>
 30002e4:	00052583          	lw	a1,0(a0)
 30002e8:	00158593          	addi	a1,a1,1
 30002ec:	00b52023          	sw	a1,0(a0)
 30002f0:	7ed02573          	csrr	a0,0x7ed
 30002f4:	bfe025f3          	csrr	a1,0xbfe
 30002f8:	bfe51073          	csrw	0xbfe,a0
 30002fc:	00b12c23          	sw	a1,24(sp)
 3000300:	300025f3          	csrr	a1,mstatus
 3000304:	00b12e23          	sw	a1,28(sp)
 3000308:	341025f3          	csrr	a1,mepc
 300030c:	02b12023          	sw	a1,32(sp)
 3000310:	34202573          	csrr	a0,mcause
 3000314:	000025b7          	lui	a1,0x2
 3000318:	80058593          	addi	a1,a1,-2048 # 1800 <__bss_size__+0xb9c>
 300031c:	3005a073          	csrs	mstatus,a1
 3000320:	00000597          	auipc	a1,0x0
 3000324:	01058593          	addi	a1,a1,16 # 3000330 <custom_nested_irq_main_handler_entry>
 3000328:	34159073          	csrw	mepc,a1
 300032c:	30200073          	mret

03000330 <custom_nested_irq_main_handler_entry>:
 3000330:	00512023          	sw	t0,0(sp)
 3000334:	00612223          	sw	t1,4(sp)
 3000338:	00712423          	sw	t2,8(sp)
 300033c:	00c12a23          	sw	a2,20(sp)
 3000340:	02112223          	sw	ra,36(sp)
 3000344:	02d12423          	sw	a3,40(sp)
 3000348:	02e12623          	sw	a4,44(sp)
 300034c:	02f12823          	sw	a5,48(sp)
 3000350:	03012a23          	sw	a6,52(sp)
 3000354:	03112c23          	sw	a7,56(sp)
 3000358:	03c12e23          	sw	t3,60(sp)
 300035c:	05d12023          	sw	t4,64(sp)
 3000360:	05e12223          	sw	t5,68(sp)
 3000364:	05f12423          	sw	t6,72(sp)
 3000368:	04012627          	fsw	ft0,76(sp)
 300036c:	04112827          	fsw	ft1,80(sp)
 3000370:	04212a27          	fsw	ft2,84(sp)
 3000374:	04312c27          	fsw	ft3,88(sp)
 3000378:	04412e27          	fsw	ft4,92(sp)
 300037c:	06512027          	fsw	ft5,96(sp)
 3000380:	06612227          	fsw	ft6,100(sp)
 3000384:	06712427          	fsw	ft7,104(sp)
 3000388:	06a12627          	fsw	fa0,108(sp)
 300038c:	06b12827          	fsw	fa1,112(sp)
 3000390:	06c12a27          	fsw	fa2,116(sp)
 3000394:	06d12c27          	fsw	fa3,120(sp)
 3000398:	06e12e27          	fsw	fa4,124(sp)
 300039c:	08f12027          	fsw	fa5,128(sp)
 30003a0:	09012227          	fsw	fa6,132(sp)
 30003a4:	09112427          	fsw	fa7,136(sp)
 30003a8:	09c12627          	fsw	ft8,140(sp)
 30003ac:	09d12827          	fsw	ft9,144(sp)
 30003b0:	09e12a27          	fsw	ft10,148(sp)
 30003b4:	09f12c27          	fsw	ft11,152(sp)
 30003b8:	0ff57513          	andi	a0,a0,255
 30003bc:	303020ef          	jal	ra,3002ebe <InterruptEntry>
 30003c0:	00412303          	lw	t1,4(sp)
 30003c4:	00812383          	lw	t2,8(sp)
 30003c8:	01412603          	lw	a2,20(sp)
 30003cc:	02412083          	lw	ra,36(sp)
 30003d0:	02812683          	lw	a3,40(sp)
 30003d4:	02c12703          	lw	a4,44(sp)
 30003d8:	03012783          	lw	a5,48(sp)
 30003dc:	03412803          	lw	a6,52(sp)
 30003e0:	03812883          	lw	a7,56(sp)
 30003e4:	03c12e03          	lw	t3,60(sp)
 30003e8:	04012e83          	lw	t4,64(sp)
 30003ec:	04412f03          	lw	t5,68(sp)
 30003f0:	04812f83          	lw	t6,72(sp)
 30003f4:	04c12007          	flw	ft0,76(sp)
 30003f8:	05012087          	flw	ft1,80(sp)
 30003fc:	05412107          	flw	ft2,84(sp)
 3000400:	05812187          	flw	ft3,88(sp)
 3000404:	05c12207          	flw	ft4,92(sp)
 3000408:	06012287          	flw	ft5,96(sp)
 300040c:	06412307          	flw	ft6,100(sp)
 3000410:	06812387          	flw	ft7,104(sp)
 3000414:	06c12507          	flw	fa0,108(sp)
 3000418:	07012587          	flw	fa1,112(sp)
 300041c:	07412607          	flw	fa2,116(sp)
 3000420:	07812687          	flw	fa3,120(sp)
 3000424:	07c12707          	flw	fa4,124(sp)
 3000428:	08012787          	flw	fa5,128(sp)
 300042c:	08412807          	flw	fa6,132(sp)
 3000430:	08812887          	flw	fa7,136(sp)
 3000434:	08c12e07          	flw	ft8,140(sp)
 3000438:	09012e87          	flw	ft9,144(sp)
 300043c:	09412f07          	flw	ft10,148(sp)
 3000440:	09812f87          	flw	ft11,152(sp)

03000444 <quit_int>:
 3000444:	01c12503          	lw	a0,28(sp)
 3000448:	300022f3          	csrr	t0,mstatus
 300044c:	02012583          	lw	a1,32(sp)
 3000450:	0082f293          	andi	t0,t0,8
 3000454:	0002923b          	bnei	t0,0,300045c <restore_mstatus>
 3000458:	f7757513          	andi	a0,a0,-137

0300045c <restore_mstatus>:
 300045c:	30051073          	csrw	mstatus,a0
 3000460:	00012283          	lw	t0,0(sp)
 3000464:	34159073          	csrw	mepc,a1
 3000468:	01812503          	lw	a0,24(sp)
 300046c:	bfe51073          	csrw	0xbfe,a0
 3000470:	a8618513          	addi	a0,gp,-1402 # 4000170 <g_RiscvPrivMode>
 3000474:	00052583          	lw	a1,0(a0)
 3000478:	fff58593          	addi	a1,a1,-1
 300047c:	00b52023          	sw	a1,0(a0)
 3000480:	01012583          	lw	a1,16(sp)
 3000484:	00c12503          	lw	a0,12(sp)
 3000488:	0a010113          	addi	sp,sp,160
 300048c:	30200073          	mret

03000490 <TrapVector>:
 3000490:	f6010113          	addi	sp,sp,-160
 3000494:	fff11f8b          	stmia	{ra,t0-t6,a0-a7},(sp)
 3000498:	f6010113          	addi	sp,sp,-160
 300049c:	34202573          	csrr	a0,mcause
 30004a0:	00b00313          	li	t1,11
 30004a4:	02650c63          	beq	a0,t1,30004dc <switch_to_umode>
 30004a8:	00800313          	li	t1,8
 30004ac:	04650c63          	beq	a0,t1,3000504 <switch_to_mmode>
 30004b0:	800005b7          	lui	a1,0x80000
 30004b4:	0ff00613          	li	a2,255
 30004b8:	00b575b3          	and	a1,a0,a1
 30004bc:	00c57533          	and	a0,a0,a2
 30004c0:	00c00613          	li	a2,12
 30004c4:	d2c506e3          	beq	a0,a2,30001f0 <NmiEntry>
 30004c8:	d8058de3          	beqz	a1,3000262 <TrapEntry>
 30004cc:	0a010113          	addi	sp,sp,160
 30004d0:	fff10f8b          	ldmia	{ra,t0-t6,a0-a7},(sp)
 30004d4:	0a010113          	addi	sp,sp,160
 30004d8:	30200073          	mret

030004dc <switch_to_umode>:
 30004dc:	000023b7          	lui	t2,0x2
 30004e0:	80038393          	addi	t2,t2,-2048 # 1800 <__bss_size__+0xb9c>
 30004e4:	3003b073          	csrc	mstatus,t2
 30004e8:	341022f3          	csrr	t0,mepc
 30004ec:	00428293          	addi	t0,t0,4
 30004f0:	34129073          	csrw	mepc,t0
 30004f4:	0a010113          	addi	sp,sp,160
 30004f8:	fff10f8b          	ldmia	{ra,t0-t6,a0-a7},(sp)
 30004fc:	0a010113          	addi	sp,sp,160
 3000500:	30200073          	mret

03000504 <switch_to_mmode>:
 3000504:	000023b7          	lui	t2,0x2
 3000508:	80038393          	addi	t2,t2,-2048 # 1800 <__bss_size__+0xb9c>
 300050c:	3003a073          	csrs	mstatus,t2
 3000510:	341022f3          	csrr	t0,mepc
 3000514:	00428293          	addi	t0,t0,4
 3000518:	34129073          	csrw	mepc,t0
 300051c:	0a010113          	addi	sp,sp,160
 3000520:	fff10f8b          	ldmia	{ra,t0-t6,a0-a7},(sp)
 3000524:	0a010113          	addi	sp,sp,160
 3000528:	30200073          	mret

0300052c <mem_cpy>:
 300052c:	0072dc63          	bge	t0,t2,3000544 <cpy_done>
 3000530:	00032e03          	lw	t3,0(t1)
 3000534:	01c2a023          	sw	t3,0(t0)
 3000538:	00428293          	addi	t0,t0,4
 300053c:	00430313          	addi	t1,t1,4
 3000540:	fedff06f          	j	300052c <mem_cpy>

03000544 <cpy_done>:
 3000544:	00008067          	ret

03000548 <handle_reset>:
 3000548:	30005073          	csrwi	mstatus,0
 300054c:	30405073          	csrwi	mie,0
 3000550:	30047073          	csrci	mstatus,8
 3000554:	00000297          	auipc	t0,0x0
 3000558:	ab428293          	addi	t0,t0,-1356 # 3000008 <TrapHandler>
 300055c:	00128293          	addi	t0,t0,1
 3000560:	30529073          	csrw	mtvec,t0
 3000564:	7ef0d073          	csrwi	0x7ef,1

03000568 <flash_init>:
 3000568:	147102b7          	lui	t0,0x14710
 300056c:	1202a303          	lw	t1,288(t0) # 14710120 <RAM_END+0x10708120>
 3000570:	00136313          	ori	t1,t1,1
 3000574:	1262a023          	sw	t1,288(t0)
 3000578:	1242a303          	lw	t1,292(t0)
 300057c:	00136313          	ori	t1,t1,1
 3000580:	1262a223          	sw	t1,292(t0)
 3000584:	fedcc2b7          	lui	t0,0xfedcc
 3000588:	a9828293          	addi	t0,t0,-1384 # fedcba98 <RAM_END+0xfadc3a98>
 300058c:	14710337          	lui	t1,0x14710
 3000590:	20030313          	addi	t1,t1,512 # 14710200 <RAM_END+0x10708200>
 3000594:	00532023          	sw	t0,0(t1)
 3000598:	01000197          	auipc	gp,0x1000
 300059c:	15218193          	addi	gp,gp,338 # 40006ea <__global_pointer$>
 30005a0:	01007117          	auipc	sp,0x1007
 30005a4:	66010113          	addi	sp,sp,1632 # 4007c00 <__INTERRUPT_STACK_BEGIN__>
 30005a8:	143002b7          	lui	t0,0x14300
 30005ac:	00828293          	addi	t0,t0,8 # 14300008 <RAM_END+0x102f8008>
 30005b0:	0002a303          	lw	t1,0(t0)
 30005b4:	02037313          	andi	t1,t1,32
 30005b8:	0062a023          	sw	t1,0(t0)
 30005bc:	140002b7          	lui	t0,0x14000
 30005c0:	00000313          	li	t1,0
 30005c4:	0262a223          	sw	t1,36(t0) # 14000024 <RAM_END+0xfff8024>
 30005c8:	0262a423          	sw	t1,40(t0)
 30005cc:	0262a623          	sw	t1,44(t0)
 30005d0:	0262a823          	sw	t1,48(t0)
 30005d4:	0462a423          	sw	t1,72(t0)

030005d8 <clear_sram>:
 30005d8:	101082b7          	lui	t0,0x10108
 30005dc:	30028293          	addi	t0,t0,768 # 10108300 <RAM_END+0xc100300>
 30005e0:	0002a303          	lw	t1,0(t0)
 30005e4:	00136313          	ori	t1,t1,1
 30005e8:	0062a023          	sw	t1,0(t0)
 30005ec:	91618293          	addi	t0,gp,-1770 # 4000000 <g_tsensorGain>
 30005f0:	01008317          	auipc	t1,0x1008
 30005f4:	a1030313          	addi	t1,t1,-1520 # 4008000 <RAM_END>
 30005f8:	00000393          	li	t2,0

030005fc <clear_sram_loop>:
 30005fc:	0072a023          	sw	t2,0(t0)
 3000600:	00428293          	addi	t0,t0,4
 3000604:	fe62cce3          	blt	t0,t1,30005fc <clear_sram_loop>

03000608 <start_coderom_code_copy>:
 3000608:	ff000297          	auipc	t0,0xff000
 300060c:	9f828293          	addi	t0,t0,-1544 # 2000000 <RAM_CODE_START>
 3000610:	00000317          	auipc	t1,0x0
 3000614:	12830313          	addi	t1,t1,296 # 3000738 <Chip_InitFail>
 3000618:	ff000397          	auipc	t2,0xff000
 300061c:	9e838393          	addi	t2,t2,-1560 # 2000000 <RAM_CODE_START>
 3000620:	f0dff0ef          	jal	ra,300052c <mem_cpy>

03000624 <start_reserved_data_copy>:
 3000624:	91618293          	addi	t0,gp,-1770 # 4000000 <g_tsensorGain>
 3000628:	00000317          	auipc	t1,0x0
 300062c:	11030313          	addi	t1,t1,272 # 3000738 <Chip_InitFail>
 3000630:	91618393          	addi	t2,gp,-1770 # 4000000 <g_tsensorGain>
 3000634:	ef9ff0ef          	jal	ra,300052c <mem_cpy>

03000638 <start_coderom_data_copy>:
 3000638:	91618293          	addi	t0,gp,-1770 # 4000000 <g_tsensorGain>
 300063c:	00010317          	auipc	t1,0x10
 3000640:	52430313          	addi	t1,t1,1316 # 3010b60 <__data_load>
 3000644:	a8618393          	addi	t2,gp,-1402 # 4000170 <g_RiscvPrivMode>
 3000648:	ee5ff0ef          	jal	ra,300052c <mem_cpy>

0300064c <pmp_init>:
 300064c:	000012b7          	lui	t0,0x1
 3000650:	b0028293          	addi	t0,t0,-1280 # b00 <cipri+0x313>
 3000654:	3b029073          	csrw	pmpaddr0,t0
 3000658:	004002b7          	lui	t0,0x400
 300065c:	40028293          	addi	t0,t0,1024 # 400400 <FLASH_SIZE+0x3e0404>
 3000660:	3b129073          	csrw	pmpaddr1,t0
 3000664:	008002b7          	lui	t0,0x800
 3000668:	3b229073          	csrw	pmpaddr2,t0
 300066c:	008022b7          	lui	t0,0x802
 3000670:	3b329073          	csrw	pmpaddr3,t0
 3000674:	00c002b7          	lui	t0,0xc00
 3000678:	3b429073          	csrw	pmpaddr4,t0
 300067c:	010002b7          	lui	t0,0x1000
 3000680:	3b529073          	csrw	pmpaddr5,t0
 3000684:	010022b7          	lui	t0,0x1002
 3000688:	3b629073          	csrw	pmpaddr6,t0
 300068c:	070002b7          	lui	t0,0x7000
 3000690:	40028293          	addi	t0,t0,1024 # 7000400 <RAM_END+0x2ff8400>
 3000694:	3b729073          	csrw	pmpaddr7,t0
 3000698:	f33332b7          	lui	t0,0xf3333
 300069c:	33328293          	addi	t0,t0,819 # f3333333 <RAM_END+0xef32b333>
 30006a0:	7d829073          	csrw	0x7d8,t0
 30006a4:	0d0812b7          	lui	t0,0xd081
 30006a8:	d8b28293          	addi	t0,t0,-629 # d080d8b <RAM_END+0x9078d8b>
 30006ac:	3a029073          	csrw	pmpcfg0,t0
 30006b0:	0b0b12b7          	lui	t0,0xb0b1
 30006b4:	d0828293          	addi	t0,t0,-760 # b0b0d08 <RAM_END+0x70a8d08>
 30006b8:	3a129073          	csrw	pmpcfg1,t0
 30006bc:	7c005073          	csrwi	0x7c0,0
 30006c0:	0ff0000f          	fence
 30006c4:	7c105073          	csrwi	0x7c1,0
 30006c8:	0ff0000f          	fence
 30006cc:	000022b7          	lui	t0,0x2
 30006d0:	00828293          	addi	t0,t0,8 # 2008 <__bss_size__+0x13a4>
 30006d4:	3002a073          	csrs	mstatus,t0
 30006d8:	02000293          	li	t0,32
 30006dc:	3012a073          	csrs	misa,t0
 30006e0:	111112b7          	lui	t0,0x11111
 30006e4:	11128293          	addi	t0,t0,273 # 11111111 <RAM_END+0xd109111>
 30006e8:	bc029073          	csrw	0xbc0,t0
 30006ec:	bc129073          	csrw	0xbc1,t0
 30006f0:	bc229073          	csrw	0xbc2,t0
 30006f4:	bc329073          	csrw	0xbc3,t0
 30006f8:	bc429073          	csrw	0xbc4,t0
 30006fc:	bc529073          	csrw	0xbc5,t0
 3000700:	bc629073          	csrw	0xbc6,t0
 3000704:	bc729073          	csrw	0xbc7,t0
 3000708:	bc829073          	csrw	0xbc8,t0
 300070c:	bc929073          	csrw	0xbc9,t0
 3000710:	bca29073          	csrw	0xbca,t0
 3000714:	bcb29073          	csrw	0xbcb,t0
 3000718:	bcc29073          	csrw	0xbcc,t0
 300071c:	bcd29073          	csrw	0xbcd,t0
 3000720:	bce29073          	csrw	0xbce,t0
 3000724:	bcf29073          	csrw	0xbcf,t0
 3000728:	00000073          	ecall
 300072c:	014000ef          	jal	ra,3000740 <Chip_Init>
 3000730:	5860b0ef          	jal	ra,300bcb6 <main>

03000734 <dead_loop>:
 3000734:	0000006f          	j	3000734 <dead_loop>

Disassembly of section .text:

03000738 <Chip_InitFail>:
 3000738:	1141                	addi	sp,sp,-16
 300073a:	c622                	sw	s0,12(sp)
 300073c:	0800                	addi	s0,sp,16
 300073e:	a001                	j	300073e <Chip_InitFail+0x6>

03000740 <Chip_Init>:
 3000740:	1101                	addi	sp,sp,-32
 3000742:	ce06                	sw	ra,28(sp)
 3000744:	cc22                	sw	s0,24(sp)
 3000746:	1000                	addi	s0,sp,32
 3000748:	fec40793          	addi	a5,s0,-20
 300074c:	853e                	mv	a0,a5
 300074e:	18d0b0ef          	jal	ra,300c0da <CRG_Config>
 3000752:	87aa                	mv	a5,a0
 3000754:	c391                	beqz	a5,3000758 <Chip_Init+0x18>
 3000756:	37cd                	jal	ra,3000738 <Chip_InitFail>
 3000758:	fec42783          	lw	a5,-20(s0)
 300075c:	853e                	mv	a0,a5
 300075e:	792000ef          	jal	ra,3000ef0 <FLASH_ClockConfig>
 3000762:	053000ef          	jal	ra,3000fb4 <SYSTICK_Init>
 3000766:	fec42783          	lw	a5,-20(s0)
 300076a:	853e                	mv	a0,a5
 300076c:	25a1                	jal	ra,3000db4 <CRG_SetCoreClockSelect>
 300076e:	794020ef          	jal	ra,3002f02 <IRQ_Init>
 3000772:	23d5                	jal	ra,3000d56 <ANAVREF_Init>
 3000774:	2b41                	jal	ra,3000d04 <ANATRIM_Entry>
 3000776:	0001                	nop
 3000778:	40f2                	lw	ra,28(sp)
 300077a:	4462                	lw	s0,24(sp)
 300077c:	6105                	addi	sp,sp,32
 300077e:	8082                	ret

03000780 <CalculateGain>:
 3000780:	1101                	addi	sp,sp,-32
 3000782:	ce22                	sw	s0,28(sp)
 3000784:	1000                	addi	s0,sp,32
 3000786:	fea42623          	sw	a0,-20(s0)
 300078a:	fec42783          	lw	a5,-20(s0)
 300078e:	d017f753          	fcvt.s.wu	fa4,a5
 3000792:	030107b7          	lui	a5,0x3010
 3000796:	e9c7a787          	flw	fa5,-356(a5) # 300fe9c <__rodata_start>
 300079a:	18f777d3          	fdiv.s	fa5,fa4,fa5
 300079e:	90f1ab27          	fsw	fa5,-1770(gp) # 4000000 <g_tsensorGain>
 30007a2:	0001                	nop
 30007a4:	4472                	lw	s0,28(sp)
 30007a6:	6105                	addi	sp,sp,32
 30007a8:	8082                	ret

030007aa <CHIP_GetInfo>:
 30007aa:	7179                	addi	sp,sp,-48
 30007ac:	d606                	sw	ra,44(sp)
 30007ae:	d422                	sw	s0,40(sp)
 30007b0:	1800                	addi	s0,sp,48
 30007b2:	fe040793          	addi	a5,s0,-32
 30007b6:	863e                	mv	a2,a5
 30007b8:	4591                	li	a1,4
 30007ba:	4501                	li	a0,0
 30007bc:	2391                	jal	ra,3000d00 <FOTP_InfoGet.trans.34>
 30007be:	fd040793          	addi	a5,s0,-48
 30007c2:	863e                	mv	a2,a5
 30007c4:	4589                	li	a1,2
 30007c6:	4501                	li	a0,0
 30007c8:	2b25                	jal	ra,3000d00 <FOTP_InfoGet.trans.34>
 30007ca:	fe042703          	lw	a4,-32(s0)
 30007ce:	5aa597b7          	lui	a5,0x5aa59
 30007d2:	66978793          	addi	a5,a5,1641 # 5aa59669 <RAM_END+0x56a51669>
 30007d6:	00f71763          	bne	a4,a5,30007e4 <CHIP_GetInfo+0x3a>
 30007da:	fd042703          	lw	a4,-48(s0)
 30007de:	57fd                	li	a5,-1
 30007e0:	00f71463          	bne	a4,a5,30007e8 <CHIP_GetInfo+0x3e>
 30007e4:	4781                	li	a5,0
 30007e6:	a011                	j	30007ea <CHIP_GetInfo+0x40>
 30007e8:	4785                	li	a5,1
 30007ea:	853e                	mv	a0,a5
 30007ec:	50b2                	lw	ra,44(sp)
 30007ee:	5422                	lw	s0,40(sp)
 30007f0:	6145                	addi	sp,sp,48
 30007f2:	8082                	ret

030007f4 <CHIP_AnalogTrim>:
 30007f4:	711d                	addi	sp,sp,-96
 30007f6:	ce86                	sw	ra,92(sp)
 30007f8:	cca2                	sw	s0,88(sp)
 30007fa:	1080                	addi	s0,sp,96
 30007fc:	fdc40793          	addi	a5,s0,-36
 3000800:	863e                	mv	a2,a5
 3000802:	45d1                	li	a1,20
 3000804:	4501                	li	a0,0
 3000806:	29ed                	jal	ra,3000d00 <FOTP_InfoGet.trans.34>
 3000808:	18100737          	lui	a4,0x18100
 300080c:	fdc42783          	lw	a5,-36(s0)
 3000810:	83c1                	srli	a5,a5,0x10
 3000812:	9bfd                	andi	a5,a5,-1
 3000814:	0ff7f693          	andi	a3,a5,255
 3000818:	433c                	lw	a5,64(a4)
 300081a:	0ff6f693          	andi	a3,a3,255
 300081e:	f007f793          	andi	a5,a5,-256
 3000822:	8fd5                	or	a5,a5,a3
 3000824:	c33c                	sw	a5,64(a4)
 3000826:	18100737          	lui	a4,0x18100
 300082a:	fdc42783          	lw	a5,-36(s0)
 300082e:	83a1                	srli	a5,a5,0x8
 3000830:	9bfd                	andi	a5,a5,-1
 3000832:	0ff7f693          	andi	a3,a5,255
 3000836:	433c                	lw	a5,64(a4)
 3000838:	0ff6f693          	andi	a3,a3,255
 300083c:	06a2                	slli	a3,a3,0x8
 300083e:	7641                	lui	a2,0xffff0
 3000840:	0ff60613          	addi	a2,a2,255 # ffff00ff <RAM_END+0xfbfe80ff>
 3000844:	8ff1                	and	a5,a5,a2
 3000846:	8fd5                	or	a5,a5,a3
 3000848:	c33c                	sw	a5,64(a4)
 300084a:	18100737          	lui	a4,0x18100
 300084e:	fdc42783          	lw	a5,-36(s0)
 3000852:	0ff7f693          	andi	a3,a5,255
 3000856:	433c                	lw	a5,64(a4)
 3000858:	0ff6f693          	andi	a3,a3,255
 300085c:	06c2                	slli	a3,a3,0x10
 300085e:	ff010637          	lui	a2,0xff010
 3000862:	167d                	addi	a2,a2,-1 # ff00ffff <RAM_END+0xfb007fff>
 3000864:	8ff1                	and	a5,a5,a2
 3000866:	8fd5                	or	a5,a5,a3
 3000868:	c33c                	sw	a5,64(a4)
 300086a:	fe042783          	lw	a5,-32(s0)
 300086e:	83c1                	srli	a5,a5,0x10
 3000870:	9bfd                	andi	a5,a5,-1
 3000872:	9f81                	uxtb	a5
 3000874:	fef42623          	sw	a5,-20(s0)
 3000878:	fe042783          	lw	a5,-32(s0)
 300087c:	83a1                	srli	a5,a5,0x8
 300087e:	9bfd                	andi	a5,a5,-1
 3000880:	9f81                	uxtb	a5
 3000882:	07a2                	slli	a5,a5,0x8
 3000884:	873e                	mv	a4,a5
 3000886:	fec42783          	lw	a5,-20(s0)
 300088a:	8fd9                	or	a5,a5,a4
 300088c:	fef42623          	sw	a5,-20(s0)
 3000890:	fe042783          	lw	a5,-32(s0)
 3000894:	9f81                	uxtb	a5
 3000896:	07c2                	slli	a5,a5,0x10
 3000898:	873e                	mv	a4,a5
 300089a:	fec42783          	lw	a5,-20(s0)
 300089e:	8fd9                	or	a5,a5,a4
 30008a0:	fef42623          	sw	a5,-20(s0)
 30008a4:	fdc42783          	lw	a5,-36(s0)
 30008a8:	83e1                	srli	a5,a5,0x18
 30008aa:	9f81                	uxtb	a5
 30008ac:	07e2                	slli	a5,a5,0x18
 30008ae:	873e                	mv	a4,a5
 30008b0:	fec42783          	lw	a5,-20(s0)
 30008b4:	8fd9                	or	a5,a5,a4
 30008b6:	fef42623          	sw	a5,-20(s0)
 30008ba:	181007b7          	lui	a5,0x18100
 30008be:	fec42703          	lw	a4,-20(s0)
 30008c2:	c3f8                	sw	a4,68(a5)
 30008c4:	fcc40793          	addi	a5,s0,-52
 30008c8:	863e                	mv	a2,a5
 30008ca:	45d5                	li	a1,21
 30008cc:	4501                	li	a0,0
 30008ce:	290d                	jal	ra,3000d00 <FOTP_InfoGet.trans.34>
 30008d0:	18000737          	lui	a4,0x18000
 30008d4:	fd042783          	lw	a5,-48(s0)
 30008d8:	86be                	mv	a3,a5
 30008da:	6789                	lui	a5,0x2
 30008dc:	17fd                	addi	a5,a5,-1 # 1fff <__bss_size__+0x139b>
 30008de:	8ff5                	and	a5,a5,a3
 30008e0:	01079613          	slli	a2,a5,0x10
 30008e4:	8241                	srli	a2,a2,0x10
 30008e6:	6785                	lui	a5,0x1
 30008e8:	973e                	add	a4,a4,a5
 30008ea:	80472783          	lw	a5,-2044(a4) # 17fff804 <RAM_END+0x13ff7804>
 30008ee:	6689                	lui	a3,0x2
 30008f0:	16fd                	addi	a3,a3,-1 # 1fff <__bss_size__+0x139b>
 30008f2:	8ef1                	and	a3,a3,a2
 30008f4:	06c2                	slli	a3,a3,0x10
 30008f6:	e0010637          	lui	a2,0xe0010
 30008fa:	167d                	addi	a2,a2,-1 # e000ffff <RAM_END+0xdc007fff>
 30008fc:	8ff1                	and	a5,a5,a2
 30008fe:	8fd5                	or	a5,a5,a3
 3000900:	80f72223          	sw	a5,-2044(a4)
 3000904:	18000737          	lui	a4,0x18000
 3000908:	fd042783          	lw	a5,-48(s0)
 300090c:	83c1                	srli	a5,a5,0x10
 300090e:	86be                	mv	a3,a5
 3000910:	6785                	lui	a5,0x1
 3000912:	17fd                	addi	a5,a5,-1 # fff <__bss_size__+0x39b>
 3000914:	8ff5                	and	a5,a5,a3
 3000916:	01079613          	slli	a2,a5,0x10
 300091a:	8241                	srli	a2,a2,0x10
 300091c:	6785                	lui	a5,0x1
 300091e:	973e                	add	a4,a4,a5
 3000920:	80472783          	lw	a5,-2044(a4) # 17fff804 <RAM_END+0x13ff7804>
 3000924:	6685                	lui	a3,0x1
 3000926:	16fd                	addi	a3,a3,-1 # fff <__bss_size__+0x39b>
 3000928:	8ef1                	and	a3,a3,a2
 300092a:	767d                	lui	a2,0xfffff
 300092c:	8ff1                	and	a5,a5,a2
 300092e:	8fd5                	or	a5,a5,a3
 3000930:	80f72223          	sw	a5,-2044(a4)
 3000934:	fe042783          	lw	a5,-32(s0)
 3000938:	83e1                	srli	a5,a5,0x18
 300093a:	0ff7f713          	andi	a4,a5,255
 300093e:	185007b7          	lui	a5,0x18500
 3000942:	cb98                	sw	a4,16(a5)
 3000944:	18000737          	lui	a4,0x18000
 3000948:	fd442783          	lw	a5,-44(s0)
 300094c:	86be                	mv	a3,a5
 300094e:	6785                	lui	a5,0x1
 3000950:	17fd                	addi	a5,a5,-1 # fff <__bss_size__+0x39b>
 3000952:	8ff5                	and	a5,a5,a3
 3000954:	01079613          	slli	a2,a5,0x10
 3000958:	8241                	srli	a2,a2,0x10
 300095a:	6785                	lui	a5,0x1
 300095c:	973e                	add	a4,a4,a5
 300095e:	80072783          	lw	a5,-2048(a4) # 17fff800 <RAM_END+0x13ff7800>
 3000962:	6685                	lui	a3,0x1
 3000964:	16fd                	addi	a3,a3,-1 # fff <__bss_size__+0x39b>
 3000966:	8ef1                	and	a3,a3,a2
 3000968:	767d                	lui	a2,0xfffff
 300096a:	8ff1                	and	a5,a5,a2
 300096c:	8fd5                	or	a5,a5,a3
 300096e:	80f72023          	sw	a5,-2048(a4)
 3000972:	fd842783          	lw	a5,-40(s0)
 3000976:	83a5                	srli	a5,a5,0x9
 3000978:	853e                	mv	a0,a5
 300097a:	3519                	jal	ra,3000780 <CalculateGain>
 300097c:	18200737          	lui	a4,0x18200
 3000980:	fcc42783          	lw	a5,-52(s0)
 3000984:	1ff7f793          	andi	a5,a5,511
 3000988:	01079693          	slli	a3,a5,0x10
 300098c:	82c1                	srli	a3,a3,0x10
 300098e:	531c                	lw	a5,32(a4)
 3000990:	1ff6f693          	andi	a3,a3,511
 3000994:	e007f793          	andi	a5,a5,-512
 3000998:	8fd5                	or	a5,a5,a3
 300099a:	d31c                	sw	a5,32(a4)
 300099c:	18201737          	lui	a4,0x18201
 30009a0:	fcc42783          	lw	a5,-52(s0)
 30009a4:	83c1                	srli	a5,a5,0x10
 30009a6:	1ff7f793          	andi	a5,a5,511
 30009aa:	01079693          	slli	a3,a5,0x10
 30009ae:	82c1                	srli	a3,a3,0x10
 30009b0:	531c                	lw	a5,32(a4)
 30009b2:	1ff6f693          	andi	a3,a3,511
 30009b6:	e007f793          	andi	a5,a5,-512
 30009ba:	8fd5                	or	a5,a5,a3
 30009bc:	d31c                	sw	a5,32(a4)
 30009be:	fbc40793          	addi	a5,s0,-68
 30009c2:	863e                	mv	a2,a5
 30009c4:	45d9                	li	a1,22
 30009c6:	4501                	li	a0,0
 30009c8:	257d                	jal	ra,3001076 <FOTP_InfoGet>
 30009ca:	18000737          	lui	a4,0x18000
 30009ce:	fbc42783          	lw	a5,-68(s0)
 30009d2:	86be                	mv	a3,a5
 30009d4:	6789                	lui	a5,0x2
 30009d6:	17fd                	addi	a5,a5,-1 # 1fff <__bss_size__+0x139b>
 30009d8:	8ff5                	and	a5,a5,a3
 30009da:	01079613          	slli	a2,a5,0x10
 30009de:	8241                	srli	a2,a2,0x10
 30009e0:	6785                	lui	a5,0x1
 30009e2:	973e                	add	a4,a4,a5
 30009e4:	81072783          	lw	a5,-2032(a4) # 17fff810 <RAM_END+0x13ff7810>
 30009e8:	6689                	lui	a3,0x2
 30009ea:	16fd                	addi	a3,a3,-1 # 1fff <__bss_size__+0x139b>
 30009ec:	8ef1                	and	a3,a3,a2
 30009ee:	06c2                	slli	a3,a3,0x10
 30009f0:	e0010637          	lui	a2,0xe0010
 30009f4:	167d                	addi	a2,a2,-1 # e000ffff <RAM_END+0xdc007fff>
 30009f6:	8ff1                	and	a5,a5,a2
 30009f8:	8fd5                	or	a5,a5,a3
 30009fa:	80f72823          	sw	a5,-2032(a4)
 30009fe:	18000737          	lui	a4,0x18000
 3000a02:	fbc42783          	lw	a5,-68(s0)
 3000a06:	83c1                	srli	a5,a5,0x10
 3000a08:	86be                	mv	a3,a5
 3000a0a:	6785                	lui	a5,0x1
 3000a0c:	17fd                	addi	a5,a5,-1 # fff <__bss_size__+0x39b>
 3000a0e:	8ff5                	and	a5,a5,a3
 3000a10:	01079613          	slli	a2,a5,0x10
 3000a14:	8241                	srli	a2,a2,0x10
 3000a16:	6785                	lui	a5,0x1
 3000a18:	973e                	add	a4,a4,a5
 3000a1a:	81072783          	lw	a5,-2032(a4) # 17fff810 <RAM_END+0x13ff7810>
 3000a1e:	6685                	lui	a3,0x1
 3000a20:	16fd                	addi	a3,a3,-1 # fff <__bss_size__+0x39b>
 3000a22:	8ef1                	and	a3,a3,a2
 3000a24:	767d                	lui	a2,0xfffff
 3000a26:	8ff1                	and	a5,a5,a2
 3000a28:	8fd5                	or	a5,a5,a3
 3000a2a:	80f72823          	sw	a5,-2032(a4)
 3000a2e:	18000737          	lui	a4,0x18000
 3000a32:	fc042783          	lw	a5,-64(s0)
 3000a36:	86be                	mv	a3,a5
 3000a38:	6789                	lui	a5,0x2
 3000a3a:	17fd                	addi	a5,a5,-1 # 1fff <__bss_size__+0x139b>
 3000a3c:	8ff5                	and	a5,a5,a3
 3000a3e:	01079613          	slli	a2,a5,0x10
 3000a42:	8241                	srli	a2,a2,0x10
 3000a44:	6785                	lui	a5,0x1
 3000a46:	973e                	add	a4,a4,a5
 3000a48:	81472783          	lw	a5,-2028(a4) # 17fff814 <RAM_END+0x13ff7814>
 3000a4c:	6689                	lui	a3,0x2
 3000a4e:	16fd                	addi	a3,a3,-1 # 1fff <__bss_size__+0x139b>
 3000a50:	8ef1                	and	a3,a3,a2
 3000a52:	06c2                	slli	a3,a3,0x10
 3000a54:	e0010637          	lui	a2,0xe0010
 3000a58:	167d                	addi	a2,a2,-1 # e000ffff <RAM_END+0xdc007fff>
 3000a5a:	8ff1                	and	a5,a5,a2
 3000a5c:	8fd5                	or	a5,a5,a3
 3000a5e:	80f72a23          	sw	a5,-2028(a4)
 3000a62:	18000737          	lui	a4,0x18000
 3000a66:	fc042783          	lw	a5,-64(s0)
 3000a6a:	83c1                	srli	a5,a5,0x10
 3000a6c:	86be                	mv	a3,a5
 3000a6e:	6785                	lui	a5,0x1
 3000a70:	17fd                	addi	a5,a5,-1 # fff <__bss_size__+0x39b>
 3000a72:	8ff5                	and	a5,a5,a3
 3000a74:	01079613          	slli	a2,a5,0x10
 3000a78:	8241                	srli	a2,a2,0x10
 3000a7a:	6785                	lui	a5,0x1
 3000a7c:	973e                	add	a4,a4,a5
 3000a7e:	81472783          	lw	a5,-2028(a4) # 17fff814 <RAM_END+0x13ff7814>
 3000a82:	6685                	lui	a3,0x1
 3000a84:	16fd                	addi	a3,a3,-1 # fff <__bss_size__+0x39b>
 3000a86:	8ef1                	and	a3,a3,a2
 3000a88:	767d                	lui	a2,0xfffff
 3000a8a:	8ff1                	and	a5,a5,a2
 3000a8c:	8fd5                	or	a5,a5,a3
 3000a8e:	80f72a23          	sw	a5,-2028(a4)
 3000a92:	18000737          	lui	a4,0x18000
 3000a96:	fc442783          	lw	a5,-60(s0)
 3000a9a:	86be                	mv	a3,a5
 3000a9c:	6789                	lui	a5,0x2
 3000a9e:	17fd                	addi	a5,a5,-1 # 1fff <__bss_size__+0x139b>
 3000aa0:	8ff5                	and	a5,a5,a3
 3000aa2:	01079613          	slli	a2,a5,0x10
 3000aa6:	8241                	srli	a2,a2,0x10
 3000aa8:	6785                	lui	a5,0x1
 3000aaa:	973e                	add	a4,a4,a5
 3000aac:	81872783          	lw	a5,-2024(a4) # 17fff818 <RAM_END+0x13ff7818>
 3000ab0:	6689                	lui	a3,0x2
 3000ab2:	16fd                	addi	a3,a3,-1 # 1fff <__bss_size__+0x139b>
 3000ab4:	8ef1                	and	a3,a3,a2
 3000ab6:	06c2                	slli	a3,a3,0x10
 3000ab8:	e0010637          	lui	a2,0xe0010
 3000abc:	167d                	addi	a2,a2,-1 # e000ffff <RAM_END+0xdc007fff>
 3000abe:	8ff1                	and	a5,a5,a2
 3000ac0:	8fd5                	or	a5,a5,a3
 3000ac2:	80f72c23          	sw	a5,-2024(a4)
 3000ac6:	18000737          	lui	a4,0x18000
 3000aca:	fc442783          	lw	a5,-60(s0)
 3000ace:	83c1                	srli	a5,a5,0x10
 3000ad0:	86be                	mv	a3,a5
 3000ad2:	6785                	lui	a5,0x1
 3000ad4:	17fd                	addi	a5,a5,-1 # fff <__bss_size__+0x39b>
 3000ad6:	8ff5                	and	a5,a5,a3
 3000ad8:	01079613          	slli	a2,a5,0x10
 3000adc:	8241                	srli	a2,a2,0x10
 3000ade:	6785                	lui	a5,0x1
 3000ae0:	973e                	add	a4,a4,a5
 3000ae2:	81872783          	lw	a5,-2024(a4) # 17fff818 <RAM_END+0x13ff7818>
 3000ae6:	6685                	lui	a3,0x1
 3000ae8:	16fd                	addi	a3,a3,-1 # fff <__bss_size__+0x39b>
 3000aea:	8ef1                	and	a3,a3,a2
 3000aec:	767d                	lui	a2,0xfffff
 3000aee:	8ff1                	and	a5,a5,a2
 3000af0:	8fd5                	or	a5,a5,a3
 3000af2:	80f72c23          	sw	a5,-2024(a4)
 3000af6:	18000737          	lui	a4,0x18000
 3000afa:	fc842783          	lw	a5,-56(s0)
 3000afe:	86be                	mv	a3,a5
 3000b00:	6789                	lui	a5,0x2
 3000b02:	17fd                	addi	a5,a5,-1 # 1fff <__bss_size__+0x139b>
 3000b04:	8ff5                	and	a5,a5,a3
 3000b06:	01079613          	slli	a2,a5,0x10
 3000b0a:	8241                	srli	a2,a2,0x10
 3000b0c:	6785                	lui	a5,0x1
 3000b0e:	973e                	add	a4,a4,a5
 3000b10:	81c72783          	lw	a5,-2020(a4) # 17fff81c <RAM_END+0x13ff781c>
 3000b14:	6689                	lui	a3,0x2
 3000b16:	16fd                	addi	a3,a3,-1 # 1fff <__bss_size__+0x139b>
 3000b18:	8ef1                	and	a3,a3,a2
 3000b1a:	06c2                	slli	a3,a3,0x10
 3000b1c:	e0010637          	lui	a2,0xe0010
 3000b20:	167d                	addi	a2,a2,-1 # e000ffff <RAM_END+0xdc007fff>
 3000b22:	8ff1                	and	a5,a5,a2
 3000b24:	8fd5                	or	a5,a5,a3
 3000b26:	80f72e23          	sw	a5,-2020(a4)
 3000b2a:	18000737          	lui	a4,0x18000
 3000b2e:	fc842783          	lw	a5,-56(s0)
 3000b32:	83c1                	srli	a5,a5,0x10
 3000b34:	86be                	mv	a3,a5
 3000b36:	6785                	lui	a5,0x1
 3000b38:	17fd                	addi	a5,a5,-1 # fff <__bss_size__+0x39b>
 3000b3a:	8ff5                	and	a5,a5,a3
 3000b3c:	01079613          	slli	a2,a5,0x10
 3000b40:	8241                	srli	a2,a2,0x10
 3000b42:	6785                	lui	a5,0x1
 3000b44:	973e                	add	a4,a4,a5
 3000b46:	81c72783          	lw	a5,-2020(a4) # 17fff81c <RAM_END+0x13ff781c>
 3000b4a:	6685                	lui	a3,0x1
 3000b4c:	16fd                	addi	a3,a3,-1 # fff <__bss_size__+0x39b>
 3000b4e:	8ef1                	and	a3,a3,a2
 3000b50:	767d                	lui	a2,0xfffff
 3000b52:	8ff1                	and	a5,a5,a2
 3000b54:	8fd5                	or	a5,a5,a3
 3000b56:	80f72e23          	sw	a5,-2020(a4)
 3000b5a:	fac40793          	addi	a5,s0,-84
 3000b5e:	863e                	mv	a2,a5
 3000b60:	45dd                	li	a1,23
 3000b62:	4501                	li	a0,0
 3000b64:	2b09                	jal	ra,3001076 <FOTP_InfoGet>
 3000b66:	18000737          	lui	a4,0x18000
 3000b6a:	fac42783          	lw	a5,-84(s0)
 3000b6e:	86be                	mv	a3,a5
 3000b70:	6789                	lui	a5,0x2
 3000b72:	17fd                	addi	a5,a5,-1 # 1fff <__bss_size__+0x139b>
 3000b74:	8ff5                	and	a5,a5,a3
 3000b76:	01079613          	slli	a2,a5,0x10
 3000b7a:	8241                	srli	a2,a2,0x10
 3000b7c:	6785                	lui	a5,0x1
 3000b7e:	973e                	add	a4,a4,a5
 3000b80:	82072783          	lw	a5,-2016(a4) # 17fff820 <RAM_END+0x13ff7820>
 3000b84:	6689                	lui	a3,0x2
 3000b86:	16fd                	addi	a3,a3,-1 # 1fff <__bss_size__+0x139b>
 3000b88:	8ef1                	and	a3,a3,a2
 3000b8a:	06c2                	slli	a3,a3,0x10
 3000b8c:	e0010637          	lui	a2,0xe0010
 3000b90:	167d                	addi	a2,a2,-1 # e000ffff <RAM_END+0xdc007fff>
 3000b92:	8ff1                	and	a5,a5,a2
 3000b94:	8fd5                	or	a5,a5,a3
 3000b96:	82f72023          	sw	a5,-2016(a4)
 3000b9a:	18000737          	lui	a4,0x18000
 3000b9e:	fac42783          	lw	a5,-84(s0)
 3000ba2:	83c1                	srli	a5,a5,0x10
 3000ba4:	86be                	mv	a3,a5
 3000ba6:	6785                	lui	a5,0x1
 3000ba8:	17fd                	addi	a5,a5,-1 # fff <__bss_size__+0x39b>
 3000baa:	8ff5                	and	a5,a5,a3
 3000bac:	01079613          	slli	a2,a5,0x10
 3000bb0:	8241                	srli	a2,a2,0x10
 3000bb2:	6785                	lui	a5,0x1
 3000bb4:	973e                	add	a4,a4,a5
 3000bb6:	82072783          	lw	a5,-2016(a4) # 17fff820 <RAM_END+0x13ff7820>
 3000bba:	6685                	lui	a3,0x1
 3000bbc:	16fd                	addi	a3,a3,-1 # fff <__bss_size__+0x39b>
 3000bbe:	8ef1                	and	a3,a3,a2
 3000bc0:	767d                	lui	a2,0xfffff
 3000bc2:	8ff1                	and	a5,a5,a2
 3000bc4:	8fd5                	or	a5,a5,a3
 3000bc6:	82f72023          	sw	a5,-2016(a4)
 3000bca:	18000737          	lui	a4,0x18000
 3000bce:	fb042783          	lw	a5,-80(s0)
 3000bd2:	86be                	mv	a3,a5
 3000bd4:	6789                	lui	a5,0x2
 3000bd6:	17fd                	addi	a5,a5,-1 # 1fff <__bss_size__+0x139b>
 3000bd8:	8ff5                	and	a5,a5,a3
 3000bda:	01079613          	slli	a2,a5,0x10
 3000bde:	8241                	srli	a2,a2,0x10
 3000be0:	6785                	lui	a5,0x1
 3000be2:	973e                	add	a4,a4,a5
 3000be4:	82472783          	lw	a5,-2012(a4) # 17fff824 <RAM_END+0x13ff7824>
 3000be8:	6689                	lui	a3,0x2
 3000bea:	16fd                	addi	a3,a3,-1 # 1fff <__bss_size__+0x139b>
 3000bec:	8ef1                	and	a3,a3,a2
 3000bee:	06c2                	slli	a3,a3,0x10
 3000bf0:	e0010637          	lui	a2,0xe0010
 3000bf4:	167d                	addi	a2,a2,-1 # e000ffff <RAM_END+0xdc007fff>
 3000bf6:	8ff1                	and	a5,a5,a2
 3000bf8:	8fd5                	or	a5,a5,a3
 3000bfa:	82f72223          	sw	a5,-2012(a4)
 3000bfe:	18000737          	lui	a4,0x18000
 3000c02:	fb042783          	lw	a5,-80(s0)
 3000c06:	83c1                	srli	a5,a5,0x10
 3000c08:	86be                	mv	a3,a5
 3000c0a:	6785                	lui	a5,0x1
 3000c0c:	17fd                	addi	a5,a5,-1 # fff <__bss_size__+0x39b>
 3000c0e:	8ff5                	and	a5,a5,a3
 3000c10:	01079613          	slli	a2,a5,0x10
 3000c14:	8241                	srli	a2,a2,0x10
 3000c16:	6785                	lui	a5,0x1
 3000c18:	973e                	add	a4,a4,a5
 3000c1a:	82472783          	lw	a5,-2012(a4) # 17fff824 <RAM_END+0x13ff7824>
 3000c1e:	6685                	lui	a3,0x1
 3000c20:	16fd                	addi	a3,a3,-1 # fff <__bss_size__+0x39b>
 3000c22:	8ef1                	and	a3,a3,a2
 3000c24:	767d                	lui	a2,0xfffff
 3000c26:	8ff1                	and	a5,a5,a2
 3000c28:	8fd5                	or	a5,a5,a3
 3000c2a:	82f72223          	sw	a5,-2012(a4)
 3000c2e:	18000737          	lui	a4,0x18000
 3000c32:	fb442783          	lw	a5,-76(s0)
 3000c36:	86be                	mv	a3,a5
 3000c38:	6789                	lui	a5,0x2
 3000c3a:	17fd                	addi	a5,a5,-1 # 1fff <__bss_size__+0x139b>
 3000c3c:	8ff5                	and	a5,a5,a3
 3000c3e:	01079613          	slli	a2,a5,0x10
 3000c42:	8241                	srli	a2,a2,0x10
 3000c44:	6785                	lui	a5,0x1
 3000c46:	973e                	add	a4,a4,a5
 3000c48:	82872783          	lw	a5,-2008(a4) # 17fff828 <RAM_END+0x13ff7828>
 3000c4c:	6689                	lui	a3,0x2
 3000c4e:	16fd                	addi	a3,a3,-1 # 1fff <__bss_size__+0x139b>
 3000c50:	8ef1                	and	a3,a3,a2
 3000c52:	06c2                	slli	a3,a3,0x10
 3000c54:	e0010637          	lui	a2,0xe0010
 3000c58:	167d                	addi	a2,a2,-1 # e000ffff <RAM_END+0xdc007fff>
 3000c5a:	8ff1                	and	a5,a5,a2
 3000c5c:	8fd5                	or	a5,a5,a3
 3000c5e:	82f72423          	sw	a5,-2008(a4)
 3000c62:	18000737          	lui	a4,0x18000
 3000c66:	fb442783          	lw	a5,-76(s0)
 3000c6a:	83c1                	srli	a5,a5,0x10
 3000c6c:	86be                	mv	a3,a5
 3000c6e:	6785                	lui	a5,0x1
 3000c70:	17fd                	addi	a5,a5,-1 # fff <__bss_size__+0x39b>
 3000c72:	8ff5                	and	a5,a5,a3
 3000c74:	01079613          	slli	a2,a5,0x10
 3000c78:	8241                	srli	a2,a2,0x10
 3000c7a:	6785                	lui	a5,0x1
 3000c7c:	973e                	add	a4,a4,a5
 3000c7e:	82872783          	lw	a5,-2008(a4) # 17fff828 <RAM_END+0x13ff7828>
 3000c82:	6685                	lui	a3,0x1
 3000c84:	16fd                	addi	a3,a3,-1 # fff <__bss_size__+0x39b>
 3000c86:	8ef1                	and	a3,a3,a2
 3000c88:	767d                	lui	a2,0xfffff
 3000c8a:	8ff1                	and	a5,a5,a2
 3000c8c:	8fd5                	or	a5,a5,a3
 3000c8e:	82f72423          	sw	a5,-2008(a4)
 3000c92:	18000737          	lui	a4,0x18000
 3000c96:	fb842783          	lw	a5,-72(s0)
 3000c9a:	86be                	mv	a3,a5
 3000c9c:	6789                	lui	a5,0x2
 3000c9e:	17fd                	addi	a5,a5,-1 # 1fff <__bss_size__+0x139b>
 3000ca0:	8ff5                	and	a5,a5,a3
 3000ca2:	01079613          	slli	a2,a5,0x10
 3000ca6:	8241                	srli	a2,a2,0x10
 3000ca8:	6785                	lui	a5,0x1
 3000caa:	973e                	add	a4,a4,a5
 3000cac:	82c72783          	lw	a5,-2004(a4) # 17fff82c <RAM_END+0x13ff782c>
 3000cb0:	6689                	lui	a3,0x2
 3000cb2:	16fd                	addi	a3,a3,-1 # 1fff <__bss_size__+0x139b>
 3000cb4:	8ef1                	and	a3,a3,a2
 3000cb6:	06c2                	slli	a3,a3,0x10
 3000cb8:	e0010637          	lui	a2,0xe0010
 3000cbc:	167d                	addi	a2,a2,-1 # e000ffff <RAM_END+0xdc007fff>
 3000cbe:	8ff1                	and	a5,a5,a2
 3000cc0:	8fd5                	or	a5,a5,a3
 3000cc2:	82f72623          	sw	a5,-2004(a4)
 3000cc6:	18000737          	lui	a4,0x18000
 3000cca:	fb842783          	lw	a5,-72(s0)
 3000cce:	83c1                	srli	a5,a5,0x10
 3000cd0:	86be                	mv	a3,a5
 3000cd2:	6785                	lui	a5,0x1
 3000cd4:	17fd                	addi	a5,a5,-1 # fff <__bss_size__+0x39b>
 3000cd6:	8ff5                	and	a5,a5,a3
 3000cd8:	01079613          	slli	a2,a5,0x10
 3000cdc:	8241                	srli	a2,a2,0x10
 3000cde:	6785                	lui	a5,0x1
 3000ce0:	973e                	add	a4,a4,a5
 3000ce2:	82c72783          	lw	a5,-2004(a4) # 17fff82c <RAM_END+0x13ff782c>
 3000ce6:	6685                	lui	a3,0x1
 3000ce8:	16fd                	addi	a3,a3,-1 # fff <__bss_size__+0x39b>
 3000cea:	8ef1                	and	a3,a3,a2
 3000cec:	767d                	lui	a2,0xfffff
 3000cee:	8ff1                	and	a5,a5,a2
 3000cf0:	8fd5                	or	a5,a5,a3
 3000cf2:	82f72623          	sw	a5,-2004(a4)
 3000cf6:	0001                	nop
 3000cf8:	40f6                	lw	ra,92(sp)
 3000cfa:	4466                	lw	s0,88(sp)
 3000cfc:	6125                	addi	sp,sp,96
 3000cfe:	8082                	ret

03000d00 <FOTP_InfoGet.trans.34>:
 3000d00:	3760006f          	j	3001076 <FOTP_InfoGet>

03000d04 <ANATRIM_Entry>:
 3000d04:	1141                	addi	sp,sp,-16
 3000d06:	c606                	sw	ra,12(sp)
 3000d08:	c422                	sw	s0,8(sp)
 3000d0a:	0800                	addi	s0,sp,16
 3000d0c:	3c79                	jal	ra,30007aa <CHIP_GetInfo>
 3000d0e:	87aa                	mv	a5,a0
 3000d10:	0017c793          	xori	a5,a5,1
 3000d14:	9f81                	uxtb	a5
 3000d16:	eb9d                	bnez	a5,3000d4c <ANATRIM_Entry+0x48>
 3000d18:	4585                	li	a1,1
 3000d1a:	18000537          	lui	a0,0x18000
 3000d1e:	2849                	jal	ra,3000db0 <HAL_CRG_IpEnableSet.trans.17>
 3000d20:	4585                	li	a1,1
 3000d22:	18200537          	lui	a0,0x18200
 3000d26:	2069                	jal	ra,3000db0 <HAL_CRG_IpEnableSet.trans.17>
 3000d28:	4585                	li	a1,1
 3000d2a:	18201537          	lui	a0,0x18201
 3000d2e:	2049                	jal	ra,3000db0 <HAL_CRG_IpEnableSet.trans.17>
 3000d30:	34d1                	jal	ra,30007f4 <CHIP_AnalogTrim>
 3000d32:	4581                	li	a1,0
 3000d34:	18000537          	lui	a0,0x18000
 3000d38:	28a5                	jal	ra,3000db0 <HAL_CRG_IpEnableSet.trans.17>
 3000d3a:	4581                	li	a1,0
 3000d3c:	18200537          	lui	a0,0x18200
 3000d40:	2885                	jal	ra,3000db0 <HAL_CRG_IpEnableSet.trans.17>
 3000d42:	4581                	li	a1,0
 3000d44:	18201537          	lui	a0,0x18201
 3000d48:	20a5                	jal	ra,3000db0 <HAL_CRG_IpEnableSet.trans.17>
 3000d4a:	a011                	j	3000d4e <ANATRIM_Entry+0x4a>
 3000d4c:	0001                	nop
 3000d4e:	40b2                	lw	ra,12(sp)
 3000d50:	4422                	lw	s0,8(sp)
 3000d52:	0141                	addi	sp,sp,16
 3000d54:	8082                	ret

03000d56 <ANAVREF_Init>:
 3000d56:	1141                	addi	sp,sp,-16
 3000d58:	c606                	sw	ra,12(sp)
 3000d5a:	c422                	sw	s0,8(sp)
 3000d5c:	0800                	addi	s0,sp,16
 3000d5e:	4585                	li	a1,1
 3000d60:	18100537          	lui	a0,0x18100
 3000d64:	20b1                	jal	ra,3000db0 <HAL_CRG_IpEnableSet.trans.17>
 3000d66:	18100737          	lui	a4,0x18100
 3000d6a:	531c                	lw	a5,32(a4)
 3000d6c:	66c1                	lui	a3,0x10
 3000d6e:	8fd5                	or	a5,a5,a3
 3000d70:	d31c                	sw	a5,32(a4)
 3000d72:	18100737          	lui	a4,0x18100
 3000d76:	431c                	lw	a5,0(a4)
 3000d78:	0017e793          	ori	a5,a5,1
 3000d7c:	c31c                	sw	a5,0(a4)
 3000d7e:	000f47b7          	lui	a5,0xf4
 3000d82:	24078593          	addi	a1,a5,576 # f4240 <FLASH_SIZE+0xd4244>
 3000d86:	0c800513          	li	a0,200
 3000d8a:	20b5                	jal	ra,3000df6 <BASE_FUNC_Delay.trans.40>
 3000d8c:	18100737          	lui	a4,0x18100
 3000d90:	531c                	lw	a5,32(a4)
 3000d92:	0017e793          	ori	a5,a5,1
 3000d96:	d31c                	sw	a5,32(a4)
 3000d98:	000f47b7          	lui	a5,0xf4
 3000d9c:	24078593          	addi	a1,a5,576 # f4240 <FLASH_SIZE+0xd4244>
 3000da0:	02800513          	li	a0,40
 3000da4:	2889                	jal	ra,3000df6 <BASE_FUNC_Delay.trans.40>
 3000da6:	0001                	nop
 3000da8:	40b2                	lw	ra,12(sp)
 3000daa:	4422                	lw	s0,8(sp)
 3000dac:	0141                	addi	sp,sp,16
 3000dae:	8082                	ret

03000db0 <HAL_CRG_IpEnableSet.trans.17>:
 3000db0:	7fc0306f          	j	30045ac <HAL_CRG_IpEnableSet>

03000db4 <CRG_SetCoreClockSelect>:
 3000db4:	715d                	addi	sp,sp,-80
 3000db6:	c686                	sw	ra,76(sp)
 3000db8:	c4a2                	sw	s0,72(sp)
 3000dba:	0880                	addi	s0,sp,80
 3000dbc:	faa42e23          	sw	a0,-68(s0)
 3000dc0:	100007b7          	lui	a5,0x10000
 3000dc4:	fcf42423          	sw	a5,-56(s0)
 3000dc8:	fbc42783          	lw	a5,-68(s0)
 3000dcc:	fef42023          	sw	a5,-32(s0)
 3000dd0:	fe042703          	lw	a4,-32(s0)
 3000dd4:	4785                	li	a5,1
 3000dd6:	00f71663          	bne	a4,a5,3000de2 <CRG_SetCoreClockSelect+0x2e>
 3000dda:	3e800593          	li	a1,1000
 3000dde:	4529                	li	a0,10
 3000de0:	2819                	jal	ra,3000df6 <BASE_FUNC_Delay.trans.40>
 3000de2:	fc840793          	addi	a5,s0,-56
 3000de6:	853e                	mv	a0,a5
 3000de8:	4b4030ef          	jal	ra,300429c <HAL_CRG_SetCoreClockSelect>
 3000dec:	0001                	nop
 3000dee:	40b6                	lw	ra,76(sp)
 3000df0:	4426                	lw	s0,72(sp)
 3000df2:	6161                	addi	sp,sp,80
 3000df4:	8082                	ret

03000df6 <BASE_FUNC_Delay.trans.40>:
 3000df6:	0560206f          	j	3002e4c <BASE_FUNC_Delay>

03000dfa <SetFlashDiv>:
 3000dfa:	7179                	addi	sp,sp,-48
 3000dfc:	d622                	sw	s0,44(sp)
 3000dfe:	1800                	addi	s0,sp,48
 3000e00:	fca42e23          	sw	a0,-36(s0)
 3000e04:	fcb42c23          	sw	a1,-40(s0)
 3000e08:	fdc42783          	lw	a5,-36(s0)
 3000e0c:	fef42423          	sw	a5,-24(s0)
 3000e10:	fe842703          	lw	a4,-24(s0)
 3000e14:	023c37b7          	lui	a5,0x23c3
 3000e18:	45f78793          	addi	a5,a5,1119 # 23c345f <RAM_CODE_START+0x3c345f>
 3000e1c:	00e7e863          	bltu	a5,a4,3000e2c <SetFlashDiv+0x32>
 3000e20:	023c37b7          	lui	a5,0x23c3
 3000e24:	46078793          	addi	a5,a5,1120 # 23c3460 <RAM_CODE_START+0x3c3460>
 3000e28:	fef42423          	sw	a5,-24(s0)
 3000e2c:	fe842703          	lw	a4,-24(s0)
 3000e30:	023c37b7          	lui	a5,0x23c3
 3000e34:	46078793          	addi	a5,a5,1120 # 23c3460 <RAM_CODE_START+0x3c3460>
 3000e38:	02f777b3          	remu	a5,a4,a5
 3000e3c:	ef81                	bnez	a5,3000e54 <SetFlashDiv+0x5a>
 3000e3e:	fe842703          	lw	a4,-24(s0)
 3000e42:	023c37b7          	lui	a5,0x23c3
 3000e46:	46078793          	addi	a5,a5,1120 # 23c3460 <RAM_CODE_START+0x3c3460>
 3000e4a:	02f757b3          	divu	a5,a4,a5
 3000e4e:	fef42623          	sw	a5,-20(s0)
 3000e52:	a821                	j	3000e6a <SetFlashDiv+0x70>
 3000e54:	fe842703          	lw	a4,-24(s0)
 3000e58:	023c37b7          	lui	a5,0x23c3
 3000e5c:	46078793          	addi	a5,a5,1120 # 23c3460 <RAM_CODE_START+0x3c3460>
 3000e60:	02f757b3          	divu	a5,a4,a5
 3000e64:	0785                	addi	a5,a5,1
 3000e66:	fef42623          	sw	a5,-20(s0)
 3000e6a:	fec42703          	lw	a4,-20(s0)
 3000e6e:	4791                	li	a5,4
 3000e70:	00e7f563          	bgeu	a5,a4,3000e7a <SetFlashDiv+0x80>
 3000e74:	4791                	li	a5,4
 3000e76:	fef42623          	sw	a5,-20(s0)
 3000e7a:	fd842783          	lw	a5,-40(s0)
 3000e7e:	fec42703          	lw	a4,-20(s0)
 3000e82:	c398                	sw	a4,0(a5)
 3000e84:	0001                	nop
 3000e86:	5432                	lw	s0,44(sp)
 3000e88:	6145                	addi	sp,sp,48
 3000e8a:	8082                	ret

03000e8c <GetFlashFreq>:
 3000e8c:	7179                	addi	sp,sp,-48
 3000e8e:	d606                	sw	ra,44(sp)
 3000e90:	d422                	sw	s0,40(sp)
 3000e92:	1800                	addi	s0,sp,48
 3000e94:	fca42e23          	sw	a0,-36(s0)
 3000e98:	fdc42783          	lw	a5,-36(s0)
 3000e9c:	4705                	li	a4,1
 3000e9e:	02e78063          	beq	a5,a4,3000ebe <GetFlashFreq+0x32>
 3000ea2:	4705                	li	a4,1
 3000ea4:	00e7e663          	bltu	a5,a4,3000eb0 <GetFlashFreq+0x24>
 3000ea8:	4709                	li	a4,2
 3000eaa:	02e78163          	beq	a5,a4,3000ecc <GetFlashFreq+0x40>
 3000eae:	a025                	j	3000ed6 <GetFlashFreq+0x4a>
 3000eb0:	017d87b7          	lui	a5,0x17d8
 3000eb4:	84078793          	addi	a5,a5,-1984 # 17d7840 <FLASH_SIZE+0x17b7844>
 3000eb8:	fef42623          	sw	a5,-20(s0)
 3000ebc:	a01d                	j	3000ee2 <GetFlashFreq+0x56>
 3000ebe:	01c9c7b7          	lui	a5,0x1c9c
 3000ec2:	38078793          	addi	a5,a5,896 # 1c9c380 <FLASH_SIZE+0x1c7c384>
 3000ec6:	fef42623          	sw	a5,-20(s0)
 3000eca:	a821                	j	3000ee2 <GetFlashFreq+0x56>
 3000ecc:	4f4030ef          	jal	ra,30043c0 <HAL_CRG_GetPllFreq>
 3000ed0:	fea42623          	sw	a0,-20(s0)
 3000ed4:	a039                	j	3000ee2 <GetFlashFreq+0x56>
 3000ed6:	67a1                	lui	a5,0x8
 3000ed8:	d0078793          	addi	a5,a5,-768 # 7d00 <RAM_SIZE+0x2d00>
 3000edc:	fef42623          	sw	a5,-20(s0)
 3000ee0:	0001                	nop
 3000ee2:	fec42783          	lw	a5,-20(s0)
 3000ee6:	853e                	mv	a0,a5
 3000ee8:	50b2                	lw	ra,44(sp)
 3000eea:	5422                	lw	s0,40(sp)
 3000eec:	6145                	addi	sp,sp,48
 3000eee:	8082                	ret

03000ef0 <FLASH_ClockConfig>:
 3000ef0:	7179                	addi	sp,sp,-48
 3000ef2:	d606                	sw	ra,44(sp)
 3000ef4:	d422                	sw	s0,40(sp)
 3000ef6:	1800                	addi	s0,sp,48
 3000ef8:	fca42e23          	sw	a0,-36(s0)
 3000efc:	147107b7          	lui	a5,0x14710
 3000f00:	fef42623          	sw	a5,-20(s0)
 3000f04:	fdc42503          	lw	a0,-36(s0)
 3000f08:	3751                	jal	ra,3000e8c <GetFlashFreq>
 3000f0a:	fea42423          	sw	a0,-24(s0)
 3000f0e:	fec42703          	lw	a4,-20(s0)
 3000f12:	6785                	lui	a5,0x1
 3000f14:	97ba                	add	a5,a5,a4
 3000f16:	9407a783          	lw	a5,-1728(a5) # 940 <cipri+0x153>
 3000f1a:	fef42223          	sw	a5,-28(s0)
 3000f1e:	fe040793          	addi	a5,s0,-32
 3000f22:	85be                	mv	a1,a5
 3000f24:	fe842503          	lw	a0,-24(s0)
 3000f28:	3dc9                	jal	ra,3000dfa <SetFlashDiv>
 3000f2a:	fe042783          	lw	a5,-32(s0)
 3000f2e:	8bbd                	andi	a5,a5,15
 3000f30:	0ff7f713          	andi	a4,a5,255
 3000f34:	fe442783          	lw	a5,-28(s0)
 3000f38:	8b3d                	andi	a4,a4,15
 3000f3a:	0712                	slli	a4,a4,0x4
 3000f3c:	f0f7f793          	andi	a5,a5,-241
 3000f40:	8fd9                	or	a5,a5,a4
 3000f42:	fef42223          	sw	a5,-28(s0)
 3000f46:	fe442783          	lw	a5,-28(s0)
 3000f4a:	00100737          	lui	a4,0x100
 3000f4e:	8fd9                	or	a5,a5,a4
 3000f50:	fef42223          	sw	a5,-28(s0)
 3000f54:	fe442783          	lw	a5,-28(s0)
 3000f58:	00400737          	lui	a4,0x400
 3000f5c:	8fd9                	or	a5,a5,a4
 3000f5e:	fef42223          	sw	a5,-28(s0)
 3000f62:	fe442783          	lw	a5,-28(s0)
 3000f66:	00400737          	lui	a4,0x400
 3000f6a:	8fd9                	or	a5,a5,a4
 3000f6c:	fef42223          	sw	a5,-28(s0)
 3000f70:	fe442783          	lw	a5,-28(s0)
 3000f74:	00100737          	lui	a4,0x100
 3000f78:	8fd9                	or	a5,a5,a4
 3000f7a:	fef42223          	sw	a5,-28(s0)
 3000f7e:	fe442703          	lw	a4,-28(s0)
 3000f82:	fec42683          	lw	a3,-20(s0)
 3000f86:	6785                	lui	a5,0x1
 3000f88:	97b6                	add	a5,a5,a3
 3000f8a:	94e7a023          	sw	a4,-1728(a5) # 940 <cipri+0x153>
 3000f8e:	0001                	nop
 3000f90:	fec42703          	lw	a4,-20(s0)
 3000f94:	6785                	lui	a5,0x1
 3000f96:	97ba                	add	a5,a5,a4
 3000f98:	9407a783          	lw	a5,-1728(a5) # 940 <cipri+0x153>
 3000f9c:	83d1                	srli	a5,a5,0x14
 3000f9e:	8b85                	andi	a5,a5,1
 3000fa0:	0ff7f713          	andi	a4,a5,255
 3000fa4:	4785                	li	a5,1
 3000fa6:	fef705e3          	beq	a4,a5,3000f90 <FLASH_ClockConfig+0xa0>
 3000faa:	0001                	nop
 3000fac:	50b2                	lw	ra,44(sp)
 3000fae:	5422                	lw	s0,40(sp)
 3000fb0:	6145                	addi	sp,sp,48
 3000fb2:	8082                	ret

03000fb4 <SYSTICK_Init>:
 3000fb4:	1141                	addi	sp,sp,-16
 3000fb6:	c622                	sw	s0,12(sp)
 3000fb8:	0800                	addi	s0,sp,16
 3000fba:	143807b7          	lui	a5,0x14380
 3000fbe:	0007a023          	sw	zero,0(a5) # 14380000 <RAM_END+0x10378000>
 3000fc2:	14380737          	lui	a4,0x14380
 3000fc6:	431c                	lw	a5,0(a4)
 3000fc8:	0017e793          	ori	a5,a5,1
 3000fcc:	c31c                	sw	a5,0(a4)
 3000fce:	0001                	nop
 3000fd0:	4432                	lw	s0,12(sp)
 3000fd2:	0141                	addi	sp,sp,16
 3000fd4:	8082                	ret

03000fd6 <SYSTICK_GetCRGHZ>:
 3000fd6:	1141                	addi	sp,sp,-16
 3000fd8:	c606                	sw	ra,12(sp)
 3000fda:	c422                	sw	s0,8(sp)
 3000fdc:	0800                	addi	s0,sp,16
 3000fde:	14380537          	lui	a0,0x14380
 3000fe2:	4da030ef          	jal	ra,30044bc <HAL_CRG_GetIpFreq>
 3000fe6:	87aa                	mv	a5,a0
 3000fe8:	853e                	mv	a0,a5
 3000fea:	40b2                	lw	ra,12(sp)
 3000fec:	4422                	lw	s0,8(sp)
 3000fee:	0141                	addi	sp,sp,16
 3000ff0:	8082                	ret

03000ff2 <FOTP_CheckReadStatus>:
 3000ff2:	1101                	addi	sp,sp,-32
 3000ff4:	ce22                	sw	s0,28(sp)
 3000ff6:	1000                	addi	s0,sp,32
 3000ff8:	fea42623          	sw	a0,-20(s0)
 3000ffc:	fec42783          	lw	a5,-20(s0)
 3001000:	1007a783          	lw	a5,256(a5)
 3001004:	83c1                	srli	a5,a5,0x10
 3001006:	8b85                	andi	a5,a5,1
 3001008:	9f81                	uxtb	a5
 300100a:	e38d                	bnez	a5,300102c <FOTP_CheckReadStatus+0x3a>
 300100c:	fec42783          	lw	a5,-20(s0)
 3001010:	1007a783          	lw	a5,256(a5)
 3001014:	83cd                	srli	a5,a5,0x13
 3001016:	8b85                	andi	a5,a5,1
 3001018:	9f81                	uxtb	a5
 300101a:	eb89                	bnez	a5,300102c <FOTP_CheckReadStatus+0x3a>
 300101c:	fec42783          	lw	a5,-20(s0)
 3001020:	1007a783          	lw	a5,256(a5)
 3001024:	83d1                	srli	a5,a5,0x14
 3001026:	8b85                	andi	a5,a5,1
 3001028:	9f81                	uxtb	a5
 300102a:	c3a9                	beqz	a5,300106c <FOTP_CheckReadStatus+0x7a>
 300102c:	fec42703          	lw	a4,-20(s0)
 3001030:	10c72783          	lw	a5,268(a4) # 1438010c <RAM_END+0x1037810c>
 3001034:	000806b7          	lui	a3,0x80
 3001038:	8fd5                	or	a5,a5,a3
 300103a:	10f72623          	sw	a5,268(a4)
 300103e:	fec42703          	lw	a4,-20(s0)
 3001042:	10c72783          	lw	a5,268(a4)
 3001046:	66c1                	lui	a3,0x10
 3001048:	8fd5                	or	a5,a5,a3
 300104a:	10f72623          	sw	a5,268(a4)
 300104e:	fec42703          	lw	a4,-20(s0)
 3001052:	10c72783          	lw	a5,268(a4)
 3001056:	001006b7          	lui	a3,0x100
 300105a:	8fd5                	or	a5,a5,a3
 300105c:	10f72623          	sw	a5,268(a4)
 3001060:	fec42783          	lw	a5,-20(s0)
 3001064:	2007a023          	sw	zero,512(a5)
 3001068:	4785                	li	a5,1
 300106a:	a011                	j	300106e <FOTP_CheckReadStatus+0x7c>
 300106c:	4781                	li	a5,0
 300106e:	853e                	mv	a0,a5
 3001070:	4472                	lw	s0,28(sp)
 3001072:	6105                	addi	sp,sp,32
 3001074:	8082                	ret

03001076 <FOTP_InfoGet>:
 3001076:	7179                	addi	sp,sp,-48
 3001078:	d606                	sw	ra,44(sp)
 300107a:	d422                	sw	s0,40(sp)
 300107c:	1800                	addi	s0,sp,48
 300107e:	fca42e23          	sw	a0,-36(s0)
 3001082:	fcb42c23          	sw	a1,-40(s0)
 3001086:	fcc42a23          	sw	a2,-44(s0)
 300108a:	147107b7          	lui	a5,0x14710
 300108e:	fef42423          	sw	a5,-24(s0)
 3001092:	fd442783          	lw	a5,-44(s0)
 3001096:	e399                	bnez	a5,300109c <FOTP_InfoGet+0x26>
 3001098:	4785                	li	a5,1
 300109a:	aa15                	j	30011ce <FOTP_InfoGet+0x158>
 300109c:	fdc42703          	lw	a4,-36(s0)
 30010a0:	4785                	li	a5,1
 30010a2:	00e7e763          	bltu	a5,a4,30010b0 <FOTP_InfoGet+0x3a>
 30010a6:	fd842703          	lw	a4,-40(s0)
 30010aa:	47e5                	li	a5,25
 30010ac:	00e7f463          	bgeu	a5,a4,30010b4 <FOTP_InfoGet+0x3e>
 30010b0:	4785                	li	a5,1
 30010b2:	aa31                	j	30011ce <FOTP_InfoGet+0x158>
 30010b4:	fe842783          	lw	a5,-24(s0)
 30010b8:	439c                	lw	a5,0(a5)
 30010ba:	8b85                	andi	a5,a5,1
 30010bc:	9f81                	uxtb	a5
 30010be:	c399                	beqz	a5,30010c4 <FOTP_InfoGet+0x4e>
 30010c0:	4785                	li	a5,1
 30010c2:	a231                	j	30011ce <FOTP_InfoGet+0x158>
 30010c4:	fe842783          	lw	a5,-24(s0)
 30010c8:	fedcc737          	lui	a4,0xfedcc
 30010cc:	a9870713          	addi	a4,a4,-1384 # fedcba98 <RAM_END+0xfadc3a98>
 30010d0:	20e7a023          	sw	a4,512(a5) # 14710200 <RAM_END+0x10708200>
 30010d4:	fdc42783          	lw	a5,-36(s0)
 30010d8:	e781                	bnez	a5,30010e0 <FOTP_InfoGet+0x6a>
 30010da:	008007b7          	lui	a5,0x800
 30010de:	a019                	j	30010e4 <FOTP_InfoGet+0x6e>
 30010e0:	008017b7          	lui	a5,0x801
 30010e4:	fef42223          	sw	a5,-28(s0)
 30010e8:	fd842783          	lw	a5,-40(s0)
 30010ec:	0792                	slli	a5,a5,0x4
 30010ee:	fe442703          	lw	a4,-28(s0)
 30010f2:	97ba                	add	a5,a5,a4
 30010f4:	fef42223          	sw	a5,-28(s0)
 30010f8:	fe442783          	lw	a5,-28(s0)
 30010fc:	0027d713          	srli	a4,a5,0x2
 3001100:	004007b7          	lui	a5,0x400
 3001104:	17fd                	addi	a5,a5,-1 # 3fffff <FLASH_SIZE+0x3e0003>
 3001106:	00f77633          	and	a2,a4,a5
 300110a:	fe842703          	lw	a4,-24(s0)
 300110e:	435c                	lw	a5,4(a4)
 3001110:	004006b7          	lui	a3,0x400
 3001114:	16fd                	addi	a3,a3,-1 # 3fffff <FLASH_SIZE+0x3e0003>
 3001116:	8ef1                	and	a3,a3,a2
 3001118:	068a                	slli	a3,a3,0x2
 300111a:	ff000637          	lui	a2,0xff000
 300111e:	060d                	addi	a2,a2,3 # ff000003 <RAM_END+0xfaff8003>
 3001120:	8ff1                	and	a5,a5,a2
 3001122:	8fd5                	or	a5,a5,a3
 3001124:	c35c                	sw	a5,4(a4)
 3001126:	fe842703          	lw	a4,-24(s0)
 300112a:	431c                	lw	a5,0(a4)
 300112c:	8ff7f793          	andi	a5,a5,-1793
 3001130:	1007e793          	ori	a5,a5,256
 3001134:	c31c                	sw	a5,0(a4)
 3001136:	fe842703          	lw	a4,-24(s0)
 300113a:	431c                	lw	a5,0(a4)
 300113c:	d00006b7          	lui	a3,0xd0000
 3001140:	16fd                	addi	a3,a3,-1 # cfffffff <RAM_END+0xcbff7fff>
 3001142:	8efd                	and	a3,a3,a5
 3001144:	100007b7          	lui	a5,0x10000
 3001148:	8fd5                	or	a5,a5,a3
 300114a:	c31c                	sw	a5,0(a4)
 300114c:	fe842703          	lw	a4,-24(s0)
 3001150:	431c                	lw	a5,0(a4)
 3001152:	0017e793          	ori	a5,a5,1
 3001156:	c31c                	sw	a5,0(a4)
 3001158:	0001                	nop
 300115a:	fe842783          	lw	a5,-24(s0)
 300115e:	439c                	lw	a5,0(a5)
 3001160:	8b85                	andi	a5,a5,1
 3001162:	9f81                	uxtb	a5
 3001164:	fbfd                	bnez	a5,300115a <FOTP_InfoGet+0xe4>
 3001166:	0001                	nop
 3001168:	fe842783          	lw	a5,-24(s0)
 300116c:	439c                	lw	a5,0(a5)
 300116e:	8399                	srli	a5,a5,0x6
 3001170:	8b8d                	andi	a5,a5,3
 3001172:	9f81                	uxtb	a5
 3001174:	fbf5                	bnez	a5,3001168 <FOTP_InfoGet+0xf2>
 3001176:	fe842503          	lw	a0,-24(s0)
 300117a:	3da5                	jal	ra,3000ff2 <FOTP_CheckReadStatus>
 300117c:	87aa                	mv	a5,a0
 300117e:	c399                	beqz	a5,3001184 <FOTP_InfoGet+0x10e>
 3001180:	4785                	li	a5,1
 3001182:	a0b1                	j	30011ce <FOTP_InfoGet+0x158>
 3001184:	fe042623          	sw	zero,-20(s0)
 3001188:	a00d                	j	30011aa <FOTP_InfoGet+0x134>
 300118a:	fe842783          	lw	a5,-24(s0)
 300118e:	6007a703          	lw	a4,1536(a5) # 10000600 <RAM_END+0xbff8600>
 3001192:	fd442683          	lw	a3,-44(s0)
 3001196:	fec42783          	lw	a5,-20(s0)
 300119a:	078a                	slli	a5,a5,0x2
 300119c:	97b6                	add	a5,a5,a3
 300119e:	c398                	sw	a4,0(a5)
 30011a0:	fec42783          	lw	a5,-20(s0)
 30011a4:	0785                	addi	a5,a5,1
 30011a6:	fef42623          	sw	a5,-20(s0)
 30011aa:	fec42703          	lw	a4,-20(s0)
 30011ae:	478d                	li	a5,3
 30011b0:	fce7fde3          	bgeu	a5,a4,300118a <FOTP_InfoGet+0x114>
 30011b4:	fe842703          	lw	a4,-24(s0)
 30011b8:	10c72783          	lw	a5,268(a4)
 30011bc:	0107e793          	ori	a5,a5,16
 30011c0:	10f72623          	sw	a5,268(a4)
 30011c4:	fe842783          	lw	a5,-24(s0)
 30011c8:	2007a023          	sw	zero,512(a5)
 30011cc:	4781                	li	a5,0
 30011ce:	853e                	mv	a0,a5
 30011d0:	50b2                	lw	ra,44(sp)
 30011d2:	5422                	lw	s0,40(sp)
 30011d4:	6145                	addi	sp,sp,48
 30011d6:	8082                	ret

030011d8 <GetCrgIpMatchInfo>:
 30011d8:	7179                	addi	sp,sp,-48
 30011da:	d622                	sw	s0,44(sp)
 30011dc:	1800                	addi	s0,sp,48
 30011de:	fca42e23          	sw	a0,-36(s0)
 30011e2:	fe042623          	sw	zero,-20(s0)
 30011e6:	a081                	j	3001226 <GetCrgIpMatchInfo+0x4e>
 30011e8:	030107b7          	lui	a5,0x3010
 30011ec:	ea078713          	addi	a4,a5,-352 # 300fea0 <g_crgIpMatch>
 30011f0:	fec42683          	lw	a3,-20(s0)
 30011f4:	47b1                	li	a5,12
 30011f6:	02f687b3          	mul	a5,a3,a5
 30011fa:	97ba                	add	a5,a5,a4
 30011fc:	439c                	lw	a5,0(a5)
 30011fe:	fdc42703          	lw	a4,-36(s0)
 3001202:	00f71d63          	bne	a4,a5,300121c <GetCrgIpMatchInfo+0x44>
 3001206:	fec42703          	lw	a4,-20(s0)
 300120a:	47b1                	li	a5,12
 300120c:	02f70733          	mul	a4,a4,a5
 3001210:	030107b7          	lui	a5,0x3010
 3001214:	ea078793          	addi	a5,a5,-352 # 300fea0 <g_crgIpMatch>
 3001218:	97ba                	add	a5,a5,a4
 300121a:	a829                	j	3001234 <GetCrgIpMatchInfo+0x5c>
 300121c:	fec42783          	lw	a5,-20(s0)
 3001220:	0785                	addi	a5,a5,1
 3001222:	fef42623          	sw	a5,-20(s0)
 3001226:	fec42703          	lw	a4,-20(s0)
 300122a:	02d00793          	li	a5,45
 300122e:	fae7fde3          	bgeu	a5,a4,30011e8 <GetCrgIpMatchInfo+0x10>
 3001232:	4781                	li	a5,0
 3001234:	853e                	mv	a0,a5
 3001236:	5432                	lw	s0,44(sp)
 3001238:	6145                	addi	sp,sp,48
 300123a:	8082                	ret

0300123c <IsADCSampleChannel>:
 300123c:	1101                	addi	sp,sp,-32
 300123e:	ce22                	sw	s0,28(sp)
 3001240:	1000                	addi	s0,sp,32
 3001242:	fea42623          	sw	a0,-20(s0)
 3001246:	fec42783          	lw	a5,-20(s0)
 300124a:	0147b793          	sltiu	a5,a5,20
 300124e:	9f81                	uxtb	a5
 3001250:	853e                	mv	a0,a5
 3001252:	4472                	lw	s0,28(sp)
 3001254:	6105                	addi	sp,sp,32
 3001256:	8082                	ret

03001258 <IsADCSOCx>:
 3001258:	1101                	addi	sp,sp,-32
 300125a:	ce22                	sw	s0,28(sp)
 300125c:	1000                	addi	s0,sp,32
 300125e:	fea42623          	sw	a0,-20(s0)
 3001262:	fec42783          	lw	a5,-20(s0)
 3001266:	0107b793          	sltiu	a5,a5,16
 300126a:	9f81                	uxtb	a5
 300126c:	853e                	mv	a0,a5
 300126e:	4472                	lw	s0,28(sp)
 3001270:	6105                	addi	sp,sp,32
 3001272:	8082                	ret

03001274 <IsADCTrigSource>:
 3001274:	1101                	addi	sp,sp,-32
 3001276:	ce22                	sw	s0,28(sp)
 3001278:	1000                	addi	s0,sp,32
 300127a:	fea42623          	sw	a0,-20(s0)
 300127e:	fec42783          	lw	a5,-20(s0)
 3001282:	0157b793          	sltiu	a5,a5,21
 3001286:	9f81                	uxtb	a5
 3001288:	853e                	mv	a0,a5
 300128a:	4472                	lw	s0,28(sp)
 300128c:	6105                	addi	sp,sp,32
 300128e:	8082                	ret

03001290 <IsADCFinishMode>:
 3001290:	1101                	addi	sp,sp,-32
 3001292:	ce22                	sw	s0,28(sp)
 3001294:	1000                	addi	s0,sp,32
 3001296:	fea42623          	sw	a0,-20(s0)
 300129a:	fec42783          	lw	a5,-20(s0)
 300129e:	cb81                	beqz	a5,30012ae <IsADCFinishMode+0x1e>
 30012a0:	fec42703          	lw	a4,-20(s0)
 30012a4:	4799                	li	a5,6
 30012a6:	00e7e463          	bltu	a5,a4,30012ae <IsADCFinishMode+0x1e>
 30012aa:	4785                	li	a5,1
 30012ac:	a011                	j	30012b0 <IsADCFinishMode+0x20>
 30012ae:	4781                	li	a5,0
 30012b0:	8b85                	andi	a5,a5,1
 30012b2:	9f81                	uxtb	a5
 30012b4:	853e                	mv	a0,a5
 30012b6:	4472                	lw	s0,28(sp)
 30012b8:	6105                	addi	sp,sp,32
 30012ba:	8082                	ret

030012bc <IsADCPriorityMode>:
 30012bc:	1101                	addi	sp,sp,-32
 30012be:	ce22                	sw	s0,28(sp)
 30012c0:	1000                	addi	s0,sp,32
 30012c2:	fea42623          	sw	a0,-20(s0)
 30012c6:	fec42703          	lw	a4,-20(s0)
 30012ca:	67c1                	lui	a5,0x10
 30012cc:	00f737b3          	sltu	a5,a4,a5
 30012d0:	9f81                	uxtb	a5
 30012d2:	853e                	mv	a0,a5
 30012d4:	4472                	lw	s0,28(sp)
 30012d6:	6105                	addi	sp,sp,32
 30012d8:	8082                	ret

030012da <IsADCTotalTime>:
 30012da:	1101                	addi	sp,sp,-32
 30012dc:	ce22                	sw	s0,28(sp)
 30012de:	1000                	addi	s0,sp,32
 30012e0:	fea42623          	sw	a0,-20(s0)
 30012e4:	fec42783          	lw	a5,-20(s0)
 30012e8:	0107b793          	sltiu	a5,a5,16
 30012ec:	9f81                	uxtb	a5
 30012ee:	853e                	mv	a0,a5
 30012f0:	4472                	lw	s0,28(sp)
 30012f2:	6105                	addi	sp,sp,32
 30012f4:	8082                	ret

030012f6 <ADC_GetCTRLAddr>:
 30012f6:	7179                	addi	sp,sp,-48
 30012f8:	d622                	sw	s0,44(sp)
 30012fa:	1800                	addi	s0,sp,48
 30012fc:	fca42e23          	sw	a0,-36(s0)
 3001300:	fcb42c23          	sw	a1,-40(s0)
 3001304:	fdc42783          	lw	a5,-36(s0)
 3001308:	10078793          	addi	a5,a5,256 # 10100 <RAM_SIZE+0xb100>
 300130c:	fef42623          	sw	a5,-20(s0)
 3001310:	fd842783          	lw	a5,-40(s0)
 3001314:	078a                	slli	a5,a5,0x2
 3001316:	fec42703          	lw	a4,-20(s0)
 300131a:	97ba                	add	a5,a5,a4
 300131c:	fef42623          	sw	a5,-20(s0)
 3001320:	fec42783          	lw	a5,-20(s0)
 3001324:	853e                	mv	a0,a5
 3001326:	5432                	lw	s0,44(sp)
 3001328:	6145                	addi	sp,sp,48
 300132a:	8082                	ret

0300132c <DCL_ADC_SOCxSelcetChannel>:
 300132c:	7179                	addi	sp,sp,-48
 300132e:	d606                	sw	ra,44(sp)
 3001330:	d422                	sw	s0,40(sp)
 3001332:	1800                	addi	s0,sp,48
 3001334:	fca42e23          	sw	a0,-36(s0)
 3001338:	fcb42c23          	sw	a1,-40(s0)
 300133c:	fcc42a23          	sw	a2,-44(s0)
 3001340:	fdc42703          	lw	a4,-36(s0)
 3001344:	180007b7          	lui	a5,0x18000
 3001348:	00f70b63          	beq	a4,a5,300135e <DCL_ADC_SOCxSelcetChannel+0x32>
 300134c:	6785                	lui	a5,0x1
 300134e:	8fa78593          	addi	a1,a5,-1798 # 8fa <cipri+0x10d>
 3001352:	030107b7          	lui	a5,0x3010
 3001356:	0c878513          	addi	a0,a5,200 # 30100c8 <g_crgIpMatch+0x228>
 300135a:	2349                	jal	ra,30018dc <AssertErrorLog.trans.0>
 300135c:	a001                	j	300135c <DCL_ADC_SOCxSelcetChannel+0x30>
 300135e:	fd842503          	lw	a0,-40(s0)
 3001362:	3ddd                	jal	ra,3001258 <IsADCSOCx>
 3001364:	87aa                	mv	a5,a0
 3001366:	0017c793          	xori	a5,a5,1
 300136a:	9f81                	uxtb	a5
 300136c:	eb89                	bnez	a5,300137e <DCL_ADC_SOCxSelcetChannel+0x52>
 300136e:	fd442503          	lw	a0,-44(s0)
 3001372:	35e9                	jal	ra,300123c <IsADCSampleChannel>
 3001374:	87aa                	mv	a5,a0
 3001376:	0017c793          	xori	a5,a5,1
 300137a:	9f81                	uxtb	a5
 300137c:	cb91                	beqz	a5,3001390 <DCL_ADC_SOCxSelcetChannel+0x64>
 300137e:	6785                	lui	a5,0x1
 3001380:	8fb78593          	addi	a1,a5,-1797 # 8fb <cipri+0x10e>
 3001384:	030107b7          	lui	a5,0x3010
 3001388:	0c878513          	addi	a0,a5,200 # 30100c8 <g_crgIpMatch+0x228>
 300138c:	2b81                	jal	ra,30018dc <AssertErrorLog.trans.0>
 300138e:	a815                	j	30013c2 <DCL_ADC_SOCxSelcetChannel+0x96>
 3001390:	fe042623          	sw	zero,-20(s0)
 3001394:	fd842583          	lw	a1,-40(s0)
 3001398:	fdc42503          	lw	a0,-36(s0)
 300139c:	3fa9                	jal	ra,30012f6 <ADC_GetCTRLAddr>
 300139e:	fea42423          	sw	a0,-24(s0)
 30013a2:	fe842783          	lw	a5,-24(s0)
 30013a6:	fef42623          	sw	a5,-20(s0)
 30013aa:	fd442783          	lw	a5,-44(s0)
 30013ae:	8bfd                	andi	a5,a5,31
 30013b0:	0ff7f693          	andi	a3,a5,255
 30013b4:	fec42703          	lw	a4,-20(s0)
 30013b8:	431c                	lw	a5,0(a4)
 30013ba:	8afd                	andi	a3,a3,31
 30013bc:	9b81                	andi	a5,a5,-32
 30013be:	8fd5                	or	a5,a5,a3
 30013c0:	c31c                	sw	a5,0(a4)
 30013c2:	50b2                	lw	ra,44(sp)
 30013c4:	5422                	lw	s0,40(sp)
 30013c6:	6145                	addi	sp,sp,48
 30013c8:	8082                	ret

030013ca <DCL_ADC_SOCxSelcetTrigSource>:
 30013ca:	7179                	addi	sp,sp,-48
 30013cc:	d606                	sw	ra,44(sp)
 30013ce:	d422                	sw	s0,40(sp)
 30013d0:	1800                	addi	s0,sp,48
 30013d2:	fca42e23          	sw	a0,-36(s0)
 30013d6:	fcb42c23          	sw	a1,-40(s0)
 30013da:	fcc42a23          	sw	a2,-44(s0)
 30013de:	fdc42703          	lw	a4,-36(s0)
 30013e2:	180007b7          	lui	a5,0x18000
 30013e6:	00f70b63          	beq	a4,a5,30013fc <DCL_ADC_SOCxSelcetTrigSource+0x32>
 30013ea:	6785                	lui	a5,0x1
 30013ec:	90b78593          	addi	a1,a5,-1781 # 90b <cipri+0x11e>
 30013f0:	030107b7          	lui	a5,0x3010
 30013f4:	0c878513          	addi	a0,a5,200 # 30100c8 <g_crgIpMatch+0x228>
 30013f8:	21d5                	jal	ra,30018dc <AssertErrorLog.trans.0>
 30013fa:	a001                	j	30013fa <DCL_ADC_SOCxSelcetTrigSource+0x30>
 30013fc:	fd842503          	lw	a0,-40(s0)
 3001400:	3da1                	jal	ra,3001258 <IsADCSOCx>
 3001402:	87aa                	mv	a5,a0
 3001404:	0017c793          	xori	a5,a5,1
 3001408:	9f81                	uxtb	a5
 300140a:	eb89                	bnez	a5,300141c <DCL_ADC_SOCxSelcetTrigSource+0x52>
 300140c:	fd442503          	lw	a0,-44(s0)
 3001410:	3595                	jal	ra,3001274 <IsADCTrigSource>
 3001412:	87aa                	mv	a5,a0
 3001414:	0017c793          	xori	a5,a5,1
 3001418:	9f81                	uxtb	a5
 300141a:	cb91                	beqz	a5,300142e <DCL_ADC_SOCxSelcetTrigSource+0x64>
 300141c:	6785                	lui	a5,0x1
 300141e:	90c78593          	addi	a1,a5,-1780 # 90c <cipri+0x11f>
 3001422:	030107b7          	lui	a5,0x3010
 3001426:	0c878513          	addi	a0,a5,200 # 30100c8 <g_crgIpMatch+0x228>
 300142a:	294d                	jal	ra,30018dc <AssertErrorLog.trans.0>
 300142c:	a835                	j	3001468 <DCL_ADC_SOCxSelcetTrigSource+0x9e>
 300142e:	fd842583          	lw	a1,-40(s0)
 3001432:	fdc42503          	lw	a0,-36(s0)
 3001436:	35c1                	jal	ra,30012f6 <ADC_GetCTRLAddr>
 3001438:	fea42623          	sw	a0,-20(s0)
 300143c:	fe042423          	sw	zero,-24(s0)
 3001440:	fec42783          	lw	a5,-20(s0)
 3001444:	fef42423          	sw	a5,-24(s0)
 3001448:	fd442783          	lw	a5,-44(s0)
 300144c:	8bfd                	andi	a5,a5,31
 300144e:	0ff7f693          	andi	a3,a5,255
 3001452:	fe842703          	lw	a4,-24(s0)
 3001456:	431c                	lw	a5,0(a4)
 3001458:	8afd                	andi	a3,a3,31
 300145a:	06a6                	slli	a3,a3,0x9
 300145c:	7671                	lui	a2,0xffffc
 300145e:	1ff60613          	addi	a2,a2,511 # ffffc1ff <RAM_END+0xfbff41ff>
 3001462:	8ff1                	and	a5,a5,a2
 3001464:	8fd5                	or	a5,a5,a3
 3001466:	c31c                	sw	a5,0(a4)
 3001468:	50b2                	lw	ra,44(sp)
 300146a:	5422                	lw	s0,40(sp)
 300146c:	6145                	addi	sp,sp,48
 300146e:	8082                	ret

03001470 <DCL_ADC_SOCxSetAcqps>:
 3001470:	7179                	addi	sp,sp,-48
 3001472:	d606                	sw	ra,44(sp)
 3001474:	d422                	sw	s0,40(sp)
 3001476:	1800                	addi	s0,sp,48
 3001478:	fca42e23          	sw	a0,-36(s0)
 300147c:	fcb42c23          	sw	a1,-40(s0)
 3001480:	fcc42a23          	sw	a2,-44(s0)
 3001484:	fdc42703          	lw	a4,-36(s0)
 3001488:	180007b7          	lui	a5,0x18000
 300148c:	00f70b63          	beq	a4,a5,30014a2 <DCL_ADC_SOCxSetAcqps+0x32>
 3001490:	6785                	lui	a5,0x1
 3001492:	91c78593          	addi	a1,a5,-1764 # 91c <cipri+0x12f>
 3001496:	030107b7          	lui	a5,0x3010
 300149a:	0c878513          	addi	a0,a5,200 # 30100c8 <g_crgIpMatch+0x228>
 300149e:	293d                	jal	ra,30018dc <AssertErrorLog.trans.0>
 30014a0:	a001                	j	30014a0 <DCL_ADC_SOCxSetAcqps+0x30>
 30014a2:	fd842503          	lw	a0,-40(s0)
 30014a6:	3b4d                	jal	ra,3001258 <IsADCSOCx>
 30014a8:	87aa                	mv	a5,a0
 30014aa:	0017c793          	xori	a5,a5,1
 30014ae:	9f81                	uxtb	a5
 30014b0:	cb91                	beqz	a5,30014c4 <DCL_ADC_SOCxSetAcqps+0x54>
 30014b2:	6785                	lui	a5,0x1
 30014b4:	91d78593          	addi	a1,a5,-1763 # 91d <cipri+0x130>
 30014b8:	030107b7          	lui	a5,0x3010
 30014bc:	0c878513          	addi	a0,a5,200 # 30100c8 <g_crgIpMatch+0x228>
 30014c0:	2931                	jal	ra,30018dc <AssertErrorLog.trans.0>
 30014c2:	a891                	j	3001516 <DCL_ADC_SOCxSetAcqps+0xa6>
 30014c4:	fd442703          	lw	a4,-44(s0)
 30014c8:	47bd                	li	a5,15
 30014ca:	00e7fb63          	bgeu	a5,a4,30014e0 <DCL_ADC_SOCxSetAcqps+0x70>
 30014ce:	6785                	lui	a5,0x1
 30014d0:	91e78593          	addi	a1,a5,-1762 # 91e <cipri+0x131>
 30014d4:	030107b7          	lui	a5,0x3010
 30014d8:	0c878513          	addi	a0,a5,200 # 30100c8 <g_crgIpMatch+0x228>
 30014dc:	2101                	jal	ra,30018dc <AssertErrorLog.trans.0>
 30014de:	a825                	j	3001516 <DCL_ADC_SOCxSetAcqps+0xa6>
 30014e0:	fd842583          	lw	a1,-40(s0)
 30014e4:	fdc42503          	lw	a0,-36(s0)
 30014e8:	3539                	jal	ra,30012f6 <ADC_GetCTRLAddr>
 30014ea:	fea42623          	sw	a0,-20(s0)
 30014ee:	fe042423          	sw	zero,-24(s0)
 30014f2:	fec42783          	lw	a5,-20(s0)
 30014f6:	fef42423          	sw	a5,-24(s0)
 30014fa:	fd442783          	lw	a5,-44(s0)
 30014fe:	8bbd                	andi	a5,a5,15
 3001500:	0ff7f693          	andi	a3,a5,255
 3001504:	fe842703          	lw	a4,-24(s0)
 3001508:	431c                	lw	a5,0(a4)
 300150a:	8abd                	andi	a3,a3,15
 300150c:	0696                	slli	a3,a3,0x5
 300150e:	e1f7f793          	andi	a5,a5,-481
 3001512:	8fd5                	or	a5,a5,a3
 3001514:	c31c                	sw	a5,0(a4)
 3001516:	50b2                	lw	ra,44(sp)
 3001518:	5422                	lw	s0,40(sp)
 300151a:	6145                	addi	sp,sp,48
 300151c:	8082                	ret

0300151e <DCL_ADC_SOCxSetPriority>:
 300151e:	1101                	addi	sp,sp,-32
 3001520:	ce06                	sw	ra,28(sp)
 3001522:	cc22                	sw	s0,24(sp)
 3001524:	1000                	addi	s0,sp,32
 3001526:	fea42623          	sw	a0,-20(s0)
 300152a:	feb42423          	sw	a1,-24(s0)
 300152e:	fec42703          	lw	a4,-20(s0)
 3001532:	180007b7          	lui	a5,0x18000
 3001536:	00f70b63          	beq	a4,a5,300154c <DCL_ADC_SOCxSetPriority+0x2e>
 300153a:	6785                	lui	a5,0x1
 300153c:	94778593          	addi	a1,a5,-1721 # 947 <cipri+0x15a>
 3001540:	030107b7          	lui	a5,0x3010
 3001544:	0c878513          	addi	a0,a5,200 # 30100c8 <g_crgIpMatch+0x228>
 3001548:	2e51                	jal	ra,30018dc <AssertErrorLog.trans.0>
 300154a:	a001                	j	300154a <DCL_ADC_SOCxSetPriority+0x2c>
 300154c:	fe842503          	lw	a0,-24(s0)
 3001550:	33b5                	jal	ra,30012bc <IsADCPriorityMode>
 3001552:	87aa                	mv	a5,a0
 3001554:	0017c793          	xori	a5,a5,1
 3001558:	9f81                	uxtb	a5
 300155a:	cb91                	beqz	a5,300156e <DCL_ADC_SOCxSetPriority+0x50>
 300155c:	6785                	lui	a5,0x1
 300155e:	94878593          	addi	a1,a5,-1720 # 948 <cipri+0x15b>
 3001562:	030107b7          	lui	a5,0x3010
 3001566:	0c878513          	addi	a0,a5,200 # 30100c8 <g_crgIpMatch+0x228>
 300156a:	2e8d                	jal	ra,30018dc <AssertErrorLog.trans.0>
 300156c:	a039                	j	300157a <DCL_ADC_SOCxSetPriority+0x5c>
 300156e:	fec42783          	lw	a5,-20(s0)
 3001572:	fe842703          	lw	a4,-24(s0)
 3001576:	20e7a023          	sw	a4,512(a5)
 300157a:	40f2                	lw	ra,28(sp)
 300157c:	4462                	lw	s0,24(sp)
 300157e:	6105                	addi	sp,sp,32
 3001580:	8082                	ret

03001582 <DCL_ADC_EnableSOCxContinue>:
 3001582:	7179                	addi	sp,sp,-48
 3001584:	d606                	sw	ra,44(sp)
 3001586:	d422                	sw	s0,40(sp)
 3001588:	1800                	addi	s0,sp,48
 300158a:	fca42e23          	sw	a0,-36(s0)
 300158e:	fcb42c23          	sw	a1,-40(s0)
 3001592:	fdc42703          	lw	a4,-36(s0)
 3001596:	180007b7          	lui	a5,0x18000
 300159a:	00f70b63          	beq	a4,a5,30015b0 <DCL_ADC_EnableSOCxContinue+0x2e>
 300159e:	6785                	lui	a5,0x1
 30015a0:	b2178593          	addi	a1,a5,-1247 # b21 <cipri+0x334>
 30015a4:	030107b7          	lui	a5,0x3010
 30015a8:	0c878513          	addi	a0,a5,200 # 30100c8 <g_crgIpMatch+0x228>
 30015ac:	2e05                	jal	ra,30018dc <AssertErrorLog.trans.0>
 30015ae:	a001                	j	30015ae <DCL_ADC_EnableSOCxContinue+0x2c>
 30015b0:	fd842503          	lw	a0,-40(s0)
 30015b4:	3155                	jal	ra,3001258 <IsADCSOCx>
 30015b6:	87aa                	mv	a5,a0
 30015b8:	0017c793          	xori	a5,a5,1
 30015bc:	9f81                	uxtb	a5
 30015be:	cb91                	beqz	a5,30015d2 <DCL_ADC_EnableSOCxContinue+0x50>
 30015c0:	6785                	lui	a5,0x1
 30015c2:	b2278593          	addi	a1,a5,-1246 # b22 <cipri+0x335>
 30015c6:	030107b7          	lui	a5,0x3010
 30015ca:	0c878513          	addi	a0,a5,200 # 30100c8 <g_crgIpMatch+0x228>
 30015ce:	2639                	jal	ra,30018dc <AssertErrorLog.trans.0>
 30015d0:	a025                	j	30015f8 <DCL_ADC_EnableSOCxContinue+0x76>
 30015d2:	fd842583          	lw	a1,-40(s0)
 30015d6:	fdc42503          	lw	a0,-36(s0)
 30015da:	3b31                	jal	ra,30012f6 <ADC_GetCTRLAddr>
 30015dc:	fea42623          	sw	a0,-20(s0)
 30015e0:	fe042423          	sw	zero,-24(s0)
 30015e4:	fec42783          	lw	a5,-20(s0)
 30015e8:	fef42423          	sw	a5,-24(s0)
 30015ec:	fe842703          	lw	a4,-24(s0)
 30015f0:	431c                	lw	a5,0(a4)
 30015f2:	6691                	lui	a3,0x4
 30015f4:	8fd5                	or	a5,a5,a3
 30015f6:	c31c                	sw	a5,0(a4)
 30015f8:	50b2                	lw	ra,44(sp)
 30015fa:	5422                	lw	s0,40(sp)
 30015fc:	6145                	addi	sp,sp,48
 30015fe:	8082                	ret

03001600 <DCL_ADC_DisableSOCxContinue>:
 3001600:	7179                	addi	sp,sp,-48
 3001602:	d606                	sw	ra,44(sp)
 3001604:	d422                	sw	s0,40(sp)
 3001606:	1800                	addi	s0,sp,48
 3001608:	fca42e23          	sw	a0,-36(s0)
 300160c:	fcb42c23          	sw	a1,-40(s0)
 3001610:	fdc42703          	lw	a4,-36(s0)
 3001614:	180007b7          	lui	a5,0x18000
 3001618:	00f70b63          	beq	a4,a5,300162e <DCL_ADC_DisableSOCxContinue+0x2e>
 300161c:	6785                	lui	a5,0x1
 300161e:	b3178593          	addi	a1,a5,-1231 # b31 <cipri+0x344>
 3001622:	030107b7          	lui	a5,0x3010
 3001626:	0c878513          	addi	a0,a5,200 # 30100c8 <g_crgIpMatch+0x228>
 300162a:	2c4d                	jal	ra,30018dc <AssertErrorLog.trans.0>
 300162c:	a001                	j	300162c <DCL_ADC_DisableSOCxContinue+0x2c>
 300162e:	fd842503          	lw	a0,-40(s0)
 3001632:	311d                	jal	ra,3001258 <IsADCSOCx>
 3001634:	87aa                	mv	a5,a0
 3001636:	0017c793          	xori	a5,a5,1
 300163a:	9f81                	uxtb	a5
 300163c:	cb91                	beqz	a5,3001650 <DCL_ADC_DisableSOCxContinue+0x50>
 300163e:	6785                	lui	a5,0x1
 3001640:	b3278593          	addi	a1,a5,-1230 # b32 <cipri+0x345>
 3001644:	030107b7          	lui	a5,0x3010
 3001648:	0c878513          	addi	a0,a5,200 # 30100c8 <g_crgIpMatch+0x228>
 300164c:	2c41                	jal	ra,30018dc <AssertErrorLog.trans.0>
 300164e:	a02d                	j	3001678 <DCL_ADC_DisableSOCxContinue+0x78>
 3001650:	fd842583          	lw	a1,-40(s0)
 3001654:	fdc42503          	lw	a0,-36(s0)
 3001658:	3979                	jal	ra,30012f6 <ADC_GetCTRLAddr>
 300165a:	fea42623          	sw	a0,-20(s0)
 300165e:	fe042423          	sw	zero,-24(s0)
 3001662:	fec42783          	lw	a5,-20(s0)
 3001666:	fef42423          	sw	a5,-24(s0)
 300166a:	fe842703          	lw	a4,-24(s0)
 300166e:	431c                	lw	a5,0(a4)
 3001670:	76f1                	lui	a3,0xffffc
 3001672:	16fd                	addi	a3,a3,-1 # ffffbfff <RAM_END+0xfbff3fff>
 3001674:	8ff5                	and	a5,a5,a3
 3001676:	c31c                	sw	a5,0(a4)
 3001678:	50b2                	lw	ra,44(sp)
 300167a:	5422                	lw	s0,40(sp)
 300167c:	6145                	addi	sp,sp,48
 300167e:	8082                	ret

03001680 <HAL_ADC_Init>:
 3001680:	1101                	addi	sp,sp,-32
 3001682:	ce06                	sw	ra,28(sp)
 3001684:	cc22                	sw	s0,24(sp)
 3001686:	1000                	addi	s0,sp,32
 3001688:	fea42623          	sw	a0,-20(s0)
 300168c:	fec42783          	lw	a5,-20(s0)
 3001690:	eb89                	bnez	a5,30016a2 <HAL_ADC_Init+0x22>
 3001692:	02b00593          	li	a1,43
 3001696:	030107b7          	lui	a5,0x3010
 300169a:	0e478513          	addi	a0,a5,228 # 30100e4 <g_crgIpMatch+0x244>
 300169e:	2c3d                	jal	ra,30018dc <AssertErrorLog.trans.0>
 30016a0:	a001                	j	30016a0 <HAL_ADC_Init+0x20>
 30016a2:	fec42783          	lw	a5,-20(s0)
 30016a6:	4398                	lw	a4,0(a5)
 30016a8:	180007b7          	lui	a5,0x18000
 30016ac:	00f70a63          	beq	a4,a5,30016c0 <HAL_ADC_Init+0x40>
 30016b0:	02c00593          	li	a1,44
 30016b4:	030107b7          	lui	a5,0x3010
 30016b8:	0e478513          	addi	a0,a5,228 # 30100e4 <g_crgIpMatch+0x244>
 30016bc:	2405                	jal	ra,30018dc <AssertErrorLog.trans.0>
 30016be:	a001                	j	30016be <HAL_ADC_Init+0x3e>
 30016c0:	fec42783          	lw	a5,-20(s0)
 30016c4:	43dc                	lw	a5,4(a5)
 30016c6:	853e                	mv	a0,a5
 30016c8:	3ed5                	jal	ra,30012bc <IsADCPriorityMode>
 30016ca:	87aa                	mv	a5,a0
 30016cc:	0017c793          	xori	a5,a5,1
 30016d0:	9f81                	uxtb	a5
 30016d2:	cb91                	beqz	a5,30016e6 <HAL_ADC_Init+0x66>
 30016d4:	02d00593          	li	a1,45
 30016d8:	030107b7          	lui	a5,0x3010
 30016dc:	0e478513          	addi	a0,a5,228 # 30100e4 <g_crgIpMatch+0x244>
 30016e0:	2af5                	jal	ra,30018dc <AssertErrorLog.trans.0>
 30016e2:	4785                	li	a5,1
 30016e4:	a099                	j	300172a <HAL_ADC_Init+0xaa>
 30016e6:	fec42783          	lw	a5,-20(s0)
 30016ea:	4398                	lw	a4,0(a5)
 30016ec:	fec42783          	lw	a5,-20(s0)
 30016f0:	43dc                	lw	a5,4(a5)
 30016f2:	85be                	mv	a1,a5
 30016f4:	853a                	mv	a0,a4
 30016f6:	3525                	jal	ra,300151e <DCL_ADC_SOCxSetPriority>
 30016f8:	fec42783          	lw	a5,-20(s0)
 30016fc:	4398                	lw	a4,0(a5)
 30016fe:	65472783          	lw	a5,1620(a4)
 3001702:	100006b7          	lui	a3,0x10000
 3001706:	16fd                	addi	a3,a3,-1 # fffffff <RAM_END+0xbff7fff>
 3001708:	8efd                	and	a3,a3,a5
 300170a:	400007b7          	lui	a5,0x40000
 300170e:	8fd5                	or	a5,a5,a3
 3001710:	64f72a23          	sw	a5,1620(a4)
 3001714:	fec42783          	lw	a5,-20(s0)
 3001718:	439c                	lw	a5,0(a5)
 300171a:	4705                	li	a4,1
 300171c:	30e7a023          	sw	a4,768(a5) # 40000300 <RAM_END+0x3bff8300>
 3001720:	06400513          	li	a0,100
 3001724:	65c010ef          	jal	ra,3002d80 <BASE_FUNC_DelayUs>
 3001728:	4781                	li	a5,0
 300172a:	853e                	mv	a0,a5
 300172c:	40f2                	lw	ra,28(sp)
 300172e:	4462                	lw	s0,24(sp)
 3001730:	6105                	addi	sp,sp,32
 3001732:	8082                	ret

03001734 <HAL_ADC_ConfigureSoc>:
 3001734:	1101                	addi	sp,sp,-32
 3001736:	ce06                	sw	ra,28(sp)
 3001738:	cc22                	sw	s0,24(sp)
 300173a:	1000                	addi	s0,sp,32
 300173c:	fea42623          	sw	a0,-20(s0)
 3001740:	feb42423          	sw	a1,-24(s0)
 3001744:	fec42223          	sw	a2,-28(s0)
 3001748:	fec42783          	lw	a5,-20(s0)
 300174c:	eb89                	bnez	a5,300175e <HAL_ADC_ConfigureSoc+0x2a>
 300174e:	04b00593          	li	a1,75
 3001752:	030107b7          	lui	a5,0x3010
 3001756:	0e478513          	addi	a0,a5,228 # 30100e4 <g_crgIpMatch+0x244>
 300175a:	2249                	jal	ra,30018dc <AssertErrorLog.trans.0>
 300175c:	a001                	j	300175c <HAL_ADC_ConfigureSoc+0x28>
 300175e:	fec42783          	lw	a5,-20(s0)
 3001762:	4398                	lw	a4,0(a5)
 3001764:	180007b7          	lui	a5,0x18000
 3001768:	00f70a63          	beq	a4,a5,300177c <HAL_ADC_ConfigureSoc+0x48>
 300176c:	04c00593          	li	a1,76
 3001770:	030107b7          	lui	a5,0x3010
 3001774:	0e478513          	addi	a0,a5,228 # 30100e4 <g_crgIpMatch+0x244>
 3001778:	2295                	jal	ra,30018dc <AssertErrorLog.trans.0>
 300177a:	a001                	j	300177a <HAL_ADC_ConfigureSoc+0x46>
 300177c:	fe842503          	lw	a0,-24(s0)
 3001780:	3ce1                	jal	ra,3001258 <IsADCSOCx>
 3001782:	87aa                	mv	a5,a0
 3001784:	0017c793          	xori	a5,a5,1
 3001788:	9f81                	uxtb	a5
 300178a:	cb91                	beqz	a5,300179e <HAL_ADC_ConfigureSoc+0x6a>
 300178c:	04d00593          	li	a1,77
 3001790:	030107b7          	lui	a5,0x3010
 3001794:	0e478513          	addi	a0,a5,228 # 30100e4 <g_crgIpMatch+0x244>
 3001798:	2291                	jal	ra,30018dc <AssertErrorLog.trans.0>
 300179a:	4785                	li	a5,1
 300179c:	aa1d                	j	30018d2 <HAL_ADC_ConfigureSoc+0x19e>
 300179e:	fe442783          	lw	a5,-28(s0)
 30017a2:	eb89                	bnez	a5,30017b4 <HAL_ADC_ConfigureSoc+0x80>
 30017a4:	04e00593          	li	a1,78
 30017a8:	030107b7          	lui	a5,0x3010
 30017ac:	0e478513          	addi	a0,a5,228 # 30100e4 <g_crgIpMatch+0x244>
 30017b0:	2235                	jal	ra,30018dc <AssertErrorLog.trans.0>
 30017b2:	a001                	j	30017b2 <HAL_ADC_ConfigureSoc+0x7e>
 30017b4:	fe442783          	lw	a5,-28(s0)
 30017b8:	439c                	lw	a5,0(a5)
 30017ba:	853e                	mv	a0,a5
 30017bc:	3441                	jal	ra,300123c <IsADCSampleChannel>
 30017be:	87aa                	mv	a5,a0
 30017c0:	0017c793          	xori	a5,a5,1
 30017c4:	9f81                	uxtb	a5
 30017c6:	cb91                	beqz	a5,30017da <HAL_ADC_ConfigureSoc+0xa6>
 30017c8:	04f00593          	li	a1,79
 30017cc:	030107b7          	lui	a5,0x3010
 30017d0:	0e478513          	addi	a0,a5,228 # 30100e4 <g_crgIpMatch+0x244>
 30017d4:	2221                	jal	ra,30018dc <AssertErrorLog.trans.0>
 30017d6:	4785                	li	a5,1
 30017d8:	a8ed                	j	30018d2 <HAL_ADC_ConfigureSoc+0x19e>
 30017da:	fe442783          	lw	a5,-28(s0)
 30017de:	43dc                	lw	a5,4(a5)
 30017e0:	853e                	mv	a0,a5
 30017e2:	3ce5                	jal	ra,30012da <IsADCTotalTime>
 30017e4:	87aa                	mv	a5,a0
 30017e6:	0017c793          	xori	a5,a5,1
 30017ea:	9f81                	uxtb	a5
 30017ec:	cb91                	beqz	a5,3001800 <HAL_ADC_ConfigureSoc+0xcc>
 30017ee:	05000593          	li	a1,80
 30017f2:	030107b7          	lui	a5,0x3010
 30017f6:	0e478513          	addi	a0,a5,228 # 30100e4 <g_crgIpMatch+0x244>
 30017fa:	20cd                	jal	ra,30018dc <AssertErrorLog.trans.0>
 30017fc:	4785                	li	a5,1
 30017fe:	a8d1                	j	30018d2 <HAL_ADC_ConfigureSoc+0x19e>
 3001800:	fe442783          	lw	a5,-28(s0)
 3001804:	479c                	lw	a5,8(a5)
 3001806:	853e                	mv	a0,a5
 3001808:	34b5                	jal	ra,3001274 <IsADCTrigSource>
 300180a:	87aa                	mv	a5,a0
 300180c:	0017c793          	xori	a5,a5,1
 3001810:	9f81                	uxtb	a5
 3001812:	cb91                	beqz	a5,3001826 <HAL_ADC_ConfigureSoc+0xf2>
 3001814:	05100593          	li	a1,81
 3001818:	030107b7          	lui	a5,0x3010
 300181c:	0e478513          	addi	a0,a5,228 # 30100e4 <g_crgIpMatch+0x244>
 3001820:	2875                	jal	ra,30018dc <AssertErrorLog.trans.0>
 3001822:	4785                	li	a5,1
 3001824:	a07d                	j	30018d2 <HAL_ADC_ConfigureSoc+0x19e>
 3001826:	fe442783          	lw	a5,-28(s0)
 300182a:	4b9c                	lw	a5,16(a5)
 300182c:	853e                	mv	a0,a5
 300182e:	348d                	jal	ra,3001290 <IsADCFinishMode>
 3001830:	87aa                	mv	a5,a0
 3001832:	0017c793          	xori	a5,a5,1
 3001836:	9f81                	uxtb	a5
 3001838:	cb91                	beqz	a5,300184c <HAL_ADC_ConfigureSoc+0x118>
 300183a:	05200593          	li	a1,82
 300183e:	030107b7          	lui	a5,0x3010
 3001842:	0e478513          	addi	a0,a5,228 # 30100e4 <g_crgIpMatch+0x244>
 3001846:	2859                	jal	ra,30018dc <AssertErrorLog.trans.0>
 3001848:	4785                	li	a5,1
 300184a:	a061                	j	30018d2 <HAL_ADC_ConfigureSoc+0x19e>
 300184c:	fec42783          	lw	a5,-20(s0)
 3001850:	4398                	lw	a4,0(a5)
 3001852:	fe442783          	lw	a5,-28(s0)
 3001856:	439c                	lw	a5,0(a5)
 3001858:	863e                	mv	a2,a5
 300185a:	fe842583          	lw	a1,-24(s0)
 300185e:	853a                	mv	a0,a4
 3001860:	34f1                	jal	ra,300132c <DCL_ADC_SOCxSelcetChannel>
 3001862:	fec42783          	lw	a5,-20(s0)
 3001866:	4398                	lw	a4,0(a5)
 3001868:	fe442783          	lw	a5,-28(s0)
 300186c:	43dc                	lw	a5,4(a5)
 300186e:	863e                	mv	a2,a5
 3001870:	fe842583          	lw	a1,-24(s0)
 3001874:	853a                	mv	a0,a4
 3001876:	3eed                	jal	ra,3001470 <DCL_ADC_SOCxSetAcqps>
 3001878:	fec42783          	lw	a5,-20(s0)
 300187c:	4398                	lw	a4,0(a5)
 300187e:	fe442783          	lw	a5,-28(s0)
 3001882:	479c                	lw	a5,8(a5)
 3001884:	863e                	mv	a2,a5
 3001886:	fe842583          	lw	a1,-24(s0)
 300188a:	853a                	mv	a0,a4
 300188c:	3e3d                	jal	ra,30013ca <DCL_ADC_SOCxSelcetTrigSource>
 300188e:	fe442783          	lw	a5,-28(s0)
 3001892:	27dc                	lbu	a5,12(a5)
 3001894:	cb89                	beqz	a5,30018a6 <HAL_ADC_ConfigureSoc+0x172>
 3001896:	fec42783          	lw	a5,-20(s0)
 300189a:	439c                	lw	a5,0(a5)
 300189c:	fe842583          	lw	a1,-24(s0)
 30018a0:	853e                	mv	a0,a5
 30018a2:	31c5                	jal	ra,3001582 <DCL_ADC_EnableSOCxContinue>
 30018a4:	a801                	j	30018b4 <HAL_ADC_ConfigureSoc+0x180>
 30018a6:	fec42783          	lw	a5,-20(s0)
 30018aa:	439c                	lw	a5,0(a5)
 30018ac:	fe842583          	lw	a1,-24(s0)
 30018b0:	853e                	mv	a0,a5
 30018b2:	33b9                	jal	ra,3001600 <DCL_ADC_DisableSOCxContinue>
 30018b4:	fe442783          	lw	a5,-28(s0)
 30018b8:	4b9c                	lw	a5,16(a5)
 30018ba:	01079713          	slli	a4,a5,0x10
 30018be:	8341                	srli	a4,a4,0x10
 30018c0:	fec42683          	lw	a3,-20(s0)
 30018c4:	fe842783          	lw	a5,-24(s0)
 30018c8:	07a1                	addi	a5,a5,8
 30018ca:	0786                	slli	a5,a5,0x1
 30018cc:	97b6                	add	a5,a5,a3
 30018ce:	a3da                	sh	a4,4(a5)
 30018d0:	4781                	li	a5,0
 30018d2:	853e                	mv	a0,a5
 30018d4:	40f2                	lw	ra,28(sp)
 30018d6:	4462                	lw	s0,24(sp)
 30018d8:	6105                	addi	sp,sp,32
 30018da:	8082                	ret

030018dc <AssertErrorLog.trans.0>:
 30018dc:	4620106f          	j	3002d3e <AssertErrorLog>

030018e0 <APT_TimeBaseInit>:
 30018e0:	1101                	addi	sp,sp,-32
 30018e2:	ce22                	sw	s0,28(sp)
 30018e4:	1000                	addi	s0,sp,32
 30018e6:	fea42623          	sw	a0,-20(s0)
 30018ea:	fec42783          	lw	a5,-20(s0)
 30018ee:	4b94                	lw	a3,16(a5)
 30018f0:	fec42783          	lw	a5,-20(s0)
 30018f4:	4398                	lw	a4,0(a5)
 30018f6:	87b6                	mv	a5,a3
 30018f8:	8b8d                	andi	a5,a5,3
 30018fa:	0ff7f693          	andi	a3,a5,255
 30018fe:	4b1c                	lw	a5,16(a4)
 3001900:	8a8d                	andi	a3,a3,3
 3001902:	9bf1                	andi	a5,a5,-4
 3001904:	8fd5                	or	a5,a5,a3
 3001906:	cb1c                	sw	a5,16(a4)
 3001908:	fec42783          	lw	a5,-20(s0)
 300190c:	2bd6                	lhu	a3,20(a5)
 300190e:	fec42783          	lw	a5,-20(s0)
 3001912:	4398                	lw	a4,0(a5)
 3001914:	6785                	lui	a5,0x1
 3001916:	17fd                	addi	a5,a5,-1 # fff <__bss_size__+0x39b>
 3001918:	8ff5                	and	a5,a5,a3
 300191a:	01079613          	slli	a2,a5,0x10
 300191e:	8241                	srli	a2,a2,0x10
 3001920:	4b1c                	lw	a5,16(a4)
 3001922:	6685                	lui	a3,0x1
 3001924:	16fd                	addi	a3,a3,-1 # fff <__bss_size__+0x39b>
 3001926:	8ef1                	and	a3,a3,a2
 3001928:	06c2                	slli	a3,a3,0x10
 300192a:	f0010637          	lui	a2,0xf0010
 300192e:	167d                	addi	a2,a2,-1 # f000ffff <RAM_END+0xec007fff>
 3001930:	8ff1                	and	a5,a5,a2
 3001932:	8fd5                	or	a5,a5,a3
 3001934:	cb1c                	sw	a5,16(a4)
 3001936:	fec42783          	lw	a5,-20(s0)
 300193a:	439c                	lw	a5,0(a5)
 300193c:	4bb8                	lw	a4,80(a5)
 300193e:	fec42783          	lw	a5,-20(s0)
 3001942:	439c                	lw	a5,0(a5)
 3001944:	9b71                	andi	a4,a4,-4
 3001946:	cbb8                	sw	a4,80(a5)
 3001948:	fec42783          	lw	a5,-20(s0)
 300194c:	4398                	lw	a4,0(a5)
 300194e:	fec42783          	lw	a5,-20(s0)
 3001952:	2bf2                	lhu	a2,22(a5)
 3001954:	531c                	lw	a5,32(a4)
 3001956:	66c1                	lui	a3,0x10
 3001958:	16fd                	addi	a3,a3,-1 # ffff <RAM_SIZE+0xafff>
 300195a:	8ef1                	and	a3,a3,a2
 300195c:	7641                	lui	a2,0xffff0
 300195e:	8ff1                	and	a5,a5,a2
 3001960:	8fd5                	or	a5,a5,a3
 3001962:	d31c                	sw	a5,32(a4)
 3001964:	fec42783          	lw	a5,-20(s0)
 3001968:	4398                	lw	a4,0(a5)
 300196a:	fec42783          	lw	a5,-20(s0)
 300196e:	2fb2                	lhu	a2,26(a5)
 3001970:	4f1c                	lw	a5,24(a4)
 3001972:	66c1                	lui	a3,0x10
 3001974:	16fd                	addi	a3,a3,-1 # ffff <RAM_SIZE+0xafff>
 3001976:	8ef1                	and	a3,a3,a2
 3001978:	7641                	lui	a2,0xffff0
 300197a:	8ff1                	and	a5,a5,a2
 300197c:	8fd5                	or	a5,a5,a3
 300197e:	cf1c                	sw	a5,24(a4)
 3001980:	fec42783          	lw	a5,-20(s0)
 3001984:	4398                	lw	a4,0(a5)
 3001986:	4f1c                	lw	a5,24(a4)
 3001988:	800006b7          	lui	a3,0x80000
 300198c:	8fd5                	or	a5,a5,a3
 300198e:	cf1c                	sw	a5,24(a4)
 3001990:	0001                	nop
 3001992:	4472                	lw	s0,28(sp)
 3001994:	6105                	addi	sp,sp,32
 3001996:	8082                	ret

03001998 <APT_SetPWMCompareVal>:
 3001998:	7179                	addi	sp,sp,-48
 300199a:	d622                	sw	s0,44(sp)
 300199c:	1800                	addi	s0,sp,48
 300199e:	fca42e23          	sw	a0,-36(s0)
 30019a2:	fdc42783          	lw	a5,-36(s0)
 30019a6:	439c                	lw	a5,0(a5)
 30019a8:	5f9c                	lw	a5,56(a5)
 30019aa:	fef42223          	sw	a5,-28(s0)
 30019ae:	fdc42783          	lw	a5,-36(s0)
 30019b2:	2fd6                	lhu	a3,28(a5)
 30019b4:	fe442783          	lw	a5,-28(s0)
 30019b8:	6741                	lui	a4,0x10
 30019ba:	177d                	addi	a4,a4,-1 # ffff <RAM_SIZE+0xafff>
 30019bc:	8f75                	and	a4,a4,a3
 30019be:	76c1                	lui	a3,0xffff0
 30019c0:	8ff5                	and	a5,a5,a3
 30019c2:	8fd9                	or	a5,a5,a4
 30019c4:	fef42223          	sw	a5,-28(s0)
 30019c8:	fdc42783          	lw	a5,-36(s0)
 30019cc:	439c                	lw	a5,0(a5)
 30019ce:	fe442703          	lw	a4,-28(s0)
 30019d2:	df98                	sw	a4,56(a5)
 30019d4:	fdc42783          	lw	a5,-36(s0)
 30019d8:	439c                	lw	a5,0(a5)
 30019da:	5fdc                	lw	a5,60(a5)
 30019dc:	fef42023          	sw	a5,-32(s0)
 30019e0:	fdc42783          	lw	a5,-36(s0)
 30019e4:	2ff6                	lhu	a3,30(a5)
 30019e6:	fe042783          	lw	a5,-32(s0)
 30019ea:	6741                	lui	a4,0x10
 30019ec:	177d                	addi	a4,a4,-1 # ffff <RAM_SIZE+0xafff>
 30019ee:	8f75                	and	a4,a4,a3
 30019f0:	76c1                	lui	a3,0xffff0
 30019f2:	8ff5                	and	a5,a5,a3
 30019f4:	8fd9                	or	a5,a5,a4
 30019f6:	fef42023          	sw	a5,-32(s0)
 30019fa:	fdc42783          	lw	a5,-36(s0)
 30019fe:	439c                	lw	a5,0(a5)
 3001a00:	fe042703          	lw	a4,-32(s0)
 3001a04:	dfd8                	sw	a4,60(a5)
 3001a06:	fdc42783          	lw	a5,-36(s0)
 3001a0a:	539c                	lw	a5,32(a5)
 3001a0c:	e385                	bnez	a5,3001a2c <APT_SetPWMCompareVal+0x94>
 3001a0e:	fdc42783          	lw	a5,-36(s0)
 3001a12:	4398                	lw	a4,0(a5)
 3001a14:	4b3c                	lw	a5,80(a4)
 3001a16:	eff7f793          	andi	a5,a5,-257
 3001a1a:	cb3c                	sw	a5,80(a4)
 3001a1c:	fdc42783          	lw	a5,-36(s0)
 3001a20:	4398                	lw	a4,0(a5)
 3001a22:	4b3c                	lw	a5,80(a4)
 3001a24:	bff7f793          	andi	a5,a5,-1025
 3001a28:	cb3c                	sw	a5,80(a4)
 3001a2a:	a2bd                	j	3001b98 <APT_SetPWMCompareVal+0x200>
 3001a2c:	fdc42783          	lw	a5,-36(s0)
 3001a30:	4398                	lw	a4,0(a5)
 3001a32:	4b3c                	lw	a5,80(a4)
 3001a34:	1007e793          	ori	a5,a5,256
 3001a38:	cb3c                	sw	a5,80(a4)
 3001a3a:	fdc42783          	lw	a5,-36(s0)
 3001a3e:	4398                	lw	a4,0(a5)
 3001a40:	4b3c                	lw	a5,80(a4)
 3001a42:	4007e793          	ori	a5,a5,1024
 3001a46:	cb3c                	sw	a5,80(a4)
 3001a48:	fdc42783          	lw	a5,-36(s0)
 3001a4c:	539c                	lw	a5,32(a5)
 3001a4e:	17f5                	addi	a5,a5,-3
 3001a50:	0017b793          	seqz	a5,a5
 3001a54:	9f81                	uxtb	a5
 3001a56:	fef42623          	sw	a5,-20(s0)
 3001a5a:	fdc42783          	lw	a5,-36(s0)
 3001a5e:	4398                	lw	a4,0(a5)
 3001a60:	fec42783          	lw	a5,-20(s0)
 3001a64:	8b85                	andi	a5,a5,1
 3001a66:	0ff7f693          	andi	a3,a5,255
 3001a6a:	4b3c                	lw	a5,80(a4)
 3001a6c:	8a85                	andi	a3,a3,1
 3001a6e:	06a6                	slli	a3,a3,0x9
 3001a70:	dff7f793          	andi	a5,a5,-513
 3001a74:	8fd5                	or	a5,a5,a3
 3001a76:	cb3c                	sw	a5,80(a4)
 3001a78:	fdc42783          	lw	a5,-36(s0)
 3001a7c:	4398                	lw	a4,0(a5)
 3001a7e:	fec42783          	lw	a5,-20(s0)
 3001a82:	8b85                	andi	a5,a5,1
 3001a84:	0ff7f693          	andi	a3,a5,255
 3001a88:	4b3c                	lw	a5,80(a4)
 3001a8a:	8a85                	andi	a3,a3,1
 3001a8c:	06ae                	slli	a3,a3,0xb
 3001a8e:	767d                	lui	a2,0xfffff
 3001a90:	7ff60613          	addi	a2,a2,2047 # fffff7ff <RAM_END+0xfbff77ff>
 3001a94:	8ff1                	and	a5,a5,a2
 3001a96:	8fd5                	or	a5,a5,a3
 3001a98:	cb3c                	sw	a5,80(a4)
 3001a9a:	47a1                	li	a5,8
 3001a9c:	fef42423          	sw	a5,-24(s0)
 3001aa0:	fdc42783          	lw	a5,-36(s0)
 3001aa4:	439c                	lw	a5,0(a5)
 3001aa6:	4fb8                	lw	a4,88(a5)
 3001aa8:	fe842783          	lw	a5,-24(s0)
 3001aac:	0786                	slli	a5,a5,0x1
 3001aae:	46fd                	li	a3,31
 3001ab0:	00f697b3          	sll	a5,a3,a5
 3001ab4:	fff7c793          	not	a5,a5
 3001ab8:	86be                	mv	a3,a5
 3001aba:	fdc42783          	lw	a5,-36(s0)
 3001abe:	439c                	lw	a5,0(a5)
 3001ac0:	8f75                	and	a4,a4,a3
 3001ac2:	cfb8                	sw	a4,88(a5)
 3001ac4:	fdc42783          	lw	a5,-36(s0)
 3001ac8:	439c                	lw	a5,0(a5)
 3001aca:	4fb8                	lw	a4,88(a5)
 3001acc:	fe842683          	lw	a3,-24(s0)
 3001ad0:	478d                	li	a5,3
 3001ad2:	02f687b3          	mul	a5,a3,a5
 3001ad6:	46fd                	li	a3,31
 3001ad8:	00f697b3          	sll	a5,a3,a5
 3001adc:	fff7c793          	not	a5,a5
 3001ae0:	86be                	mv	a3,a5
 3001ae2:	fdc42783          	lw	a5,-36(s0)
 3001ae6:	439c                	lw	a5,0(a5)
 3001ae8:	8f75                	and	a4,a4,a3
 3001aea:	cfb8                	sw	a4,88(a5)
 3001aec:	fdc42783          	lw	a5,-36(s0)
 3001af0:	439c                	lw	a5,0(a5)
 3001af2:	4fb4                	lw	a3,88(a5)
 3001af4:	fdc42783          	lw	a5,-36(s0)
 3001af8:	53d8                	lw	a4,36(a5)
 3001afa:	fe842783          	lw	a5,-24(s0)
 3001afe:	0786                	slli	a5,a5,0x1
 3001b00:	00f71733          	sll	a4,a4,a5
 3001b04:	fdc42783          	lw	a5,-36(s0)
 3001b08:	439c                	lw	a5,0(a5)
 3001b0a:	8f55                	or	a4,a4,a3
 3001b0c:	cfb8                	sw	a4,88(a5)
 3001b0e:	fdc42783          	lw	a5,-36(s0)
 3001b12:	439c                	lw	a5,0(a5)
 3001b14:	4fb4                	lw	a3,88(a5)
 3001b16:	fdc42783          	lw	a5,-36(s0)
 3001b1a:	53d8                	lw	a4,36(a5)
 3001b1c:	fe842603          	lw	a2,-24(s0)
 3001b20:	478d                	li	a5,3
 3001b22:	02f607b3          	mul	a5,a2,a5
 3001b26:	00f71733          	sll	a4,a4,a5
 3001b2a:	fdc42783          	lw	a5,-36(s0)
 3001b2e:	439c                	lw	a5,0(a5)
 3001b30:	8f55                	or	a4,a4,a3
 3001b32:	cfb8                	sw	a4,88(a5)
 3001b34:	fdc42783          	lw	a5,-36(s0)
 3001b38:	439c                	lw	a5,0(a5)
 3001b3a:	5f9c                	lw	a5,56(a5)
 3001b3c:	fef42223          	sw	a5,-28(s0)
 3001b40:	fdc42783          	lw	a5,-36(s0)
 3001b44:	2fd6                	lhu	a3,28(a5)
 3001b46:	fe442783          	lw	a5,-28(s0)
 3001b4a:	6741                	lui	a4,0x10
 3001b4c:	177d                	addi	a4,a4,-1 # ffff <RAM_SIZE+0xafff>
 3001b4e:	8f75                	and	a4,a4,a3
 3001b50:	76c1                	lui	a3,0xffff0
 3001b52:	8ff5                	and	a5,a5,a3
 3001b54:	8fd9                	or	a5,a5,a4
 3001b56:	fef42223          	sw	a5,-28(s0)
 3001b5a:	fdc42783          	lw	a5,-36(s0)
 3001b5e:	439c                	lw	a5,0(a5)
 3001b60:	fe442703          	lw	a4,-28(s0)
 3001b64:	df98                	sw	a4,56(a5)
 3001b66:	fdc42783          	lw	a5,-36(s0)
 3001b6a:	439c                	lw	a5,0(a5)
 3001b6c:	5fdc                	lw	a5,60(a5)
 3001b6e:	fef42023          	sw	a5,-32(s0)
 3001b72:	fdc42783          	lw	a5,-36(s0)
 3001b76:	2ff6                	lhu	a3,30(a5)
 3001b78:	fe042783          	lw	a5,-32(s0)
 3001b7c:	6741                	lui	a4,0x10
 3001b7e:	177d                	addi	a4,a4,-1 # ffff <RAM_SIZE+0xafff>
 3001b80:	8f75                	and	a4,a4,a3
 3001b82:	76c1                	lui	a3,0xffff0
 3001b84:	8ff5                	and	a5,a5,a3
 3001b86:	8fd9                	or	a5,a5,a4
 3001b88:	fef42023          	sw	a5,-32(s0)
 3001b8c:	fdc42783          	lw	a5,-36(s0)
 3001b90:	439c                	lw	a5,0(a5)
 3001b92:	fe042703          	lw	a4,-32(s0)
 3001b96:	dfd8                	sw	a4,60(a5)
 3001b98:	0001                	nop
 3001b9a:	5432                	lw	s0,44(sp)
 3001b9c:	6145                	addi	sp,sp,48
 3001b9e:	8082                	ret

03001ba0 <APT_SetOutputABasicType>:
 3001ba0:	1101                	addi	sp,sp,-32
 3001ba2:	ce22                	sw	s0,28(sp)
 3001ba4:	1000                	addi	s0,sp,32
 3001ba6:	fea42623          	sw	a0,-20(s0)
 3001baa:	feb42423          	sw	a1,-24(s0)
 3001bae:	fec42783          	lw	a5,-20(s0)
 3001bb2:	4b9c                	lw	a5,16(a5)
 3001bb4:	4705                	li	a4,1
 3001bb6:	06e78363          	beq	a5,a4,3001c1c <APT_SetOutputABasicType+0x7c>
 3001bba:	4705                	li	a4,1
 3001bbc:	00e7e663          	bltu	a5,a4,3001bc8 <APT_SetOutputABasicType+0x28>
 3001bc0:	4709                	li	a4,2
 3001bc2:	0ae78763          	beq	a5,a4,3001c70 <APT_SetOutputABasicType+0xd0>
 3001bc6:	a8fd                	j	3001cc4 <APT_SetOutputABasicType+0x124>
 3001bc8:	fe842783          	lw	a5,-24(s0)
 3001bcc:	4394                	lw	a3,0(a5)
 3001bce:	fec42783          	lw	a5,-20(s0)
 3001bd2:	4398                	lw	a4,0(a5)
 3001bd4:	87b6                	mv	a5,a3
 3001bd6:	8b8d                	andi	a5,a5,3
 3001bd8:	0ff7f693          	andi	a3,a5,255
 3001bdc:	10072783          	lw	a5,256(a4)
 3001be0:	8a8d                	andi	a3,a3,3
 3001be2:	06b2                	slli	a3,a3,0xc
 3001be4:	7675                	lui	a2,0xffffd
 3001be6:	167d                	addi	a2,a2,-1 # ffffcfff <RAM_END+0xfbff4fff>
 3001be8:	8ff1                	and	a5,a5,a2
 3001bea:	8fd5                	or	a5,a5,a3
 3001bec:	10f72023          	sw	a5,256(a4)
 3001bf0:	fe842783          	lw	a5,-24(s0)
 3001bf4:	43d4                	lw	a3,4(a5)
 3001bf6:	fec42783          	lw	a5,-20(s0)
 3001bfa:	4398                	lw	a4,0(a5)
 3001bfc:	87b6                	mv	a5,a3
 3001bfe:	8b8d                	andi	a5,a5,3
 3001c00:	0ff7f693          	andi	a3,a5,255
 3001c04:	10072783          	lw	a5,256(a4)
 3001c08:	8a8d                	andi	a3,a3,3
 3001c0a:	06c2                	slli	a3,a3,0x10
 3001c0c:	fffd0637          	lui	a2,0xfffd0
 3001c10:	167d                	addi	a2,a2,-1 # fffcffff <RAM_END+0xfbfc7fff>
 3001c12:	8ff1                	and	a5,a5,a2
 3001c14:	8fd5                	or	a5,a5,a3
 3001c16:	10f72023          	sw	a5,256(a4)
 3001c1a:	a06d                	j	3001cc4 <APT_SetOutputABasicType+0x124>
 3001c1c:	fe842783          	lw	a5,-24(s0)
 3001c20:	43d4                	lw	a3,4(a5)
 3001c22:	fec42783          	lw	a5,-20(s0)
 3001c26:	4398                	lw	a4,0(a5)
 3001c28:	87b6                	mv	a5,a3
 3001c2a:	8b8d                	andi	a5,a5,3
 3001c2c:	0ff7f693          	andi	a3,a5,255
 3001c30:	10072783          	lw	a5,256(a4)
 3001c34:	8a8d                	andi	a3,a3,3
 3001c36:	06ba                	slli	a3,a3,0xe
 3001c38:	7651                	lui	a2,0xffff4
 3001c3a:	167d                	addi	a2,a2,-1 # ffff3fff <RAM_END+0xfbfebfff>
 3001c3c:	8ff1                	and	a5,a5,a2
 3001c3e:	8fd5                	or	a5,a5,a3
 3001c40:	10f72023          	sw	a5,256(a4)
 3001c44:	fe842783          	lw	a5,-24(s0)
 3001c48:	4394                	lw	a3,0(a5)
 3001c4a:	fec42783          	lw	a5,-20(s0)
 3001c4e:	4398                	lw	a4,0(a5)
 3001c50:	87b6                	mv	a5,a3
 3001c52:	8b8d                	andi	a5,a5,3
 3001c54:	0ff7f693          	andi	a3,a5,255
 3001c58:	10072783          	lw	a5,256(a4)
 3001c5c:	8a8d                	andi	a3,a3,3
 3001c5e:	06ca                	slli	a3,a3,0x12
 3001c60:	fff40637          	lui	a2,0xfff40
 3001c64:	167d                	addi	a2,a2,-1 # fff3ffff <RAM_END+0xfbf37fff>
 3001c66:	8ff1                	and	a5,a5,a2
 3001c68:	8fd5                	or	a5,a5,a3
 3001c6a:	10f72023          	sw	a5,256(a4)
 3001c6e:	a899                	j	3001cc4 <APT_SetOutputABasicType+0x124>
 3001c70:	fe842783          	lw	a5,-24(s0)
 3001c74:	4394                	lw	a3,0(a5)
 3001c76:	fec42783          	lw	a5,-20(s0)
 3001c7a:	4398                	lw	a4,0(a5)
 3001c7c:	87b6                	mv	a5,a3
 3001c7e:	8b8d                	andi	a5,a5,3
 3001c80:	0ff7f693          	andi	a3,a5,255
 3001c84:	10072783          	lw	a5,256(a4)
 3001c88:	8a8d                	andi	a3,a3,3
 3001c8a:	06b2                	slli	a3,a3,0xc
 3001c8c:	7675                	lui	a2,0xffffd
 3001c8e:	167d                	addi	a2,a2,-1 # ffffcfff <RAM_END+0xfbff4fff>
 3001c90:	8ff1                	and	a5,a5,a2
 3001c92:	8fd5                	or	a5,a5,a3
 3001c94:	10f72023          	sw	a5,256(a4)
 3001c98:	fe842783          	lw	a5,-24(s0)
 3001c9c:	43d4                	lw	a3,4(a5)
 3001c9e:	fec42783          	lw	a5,-20(s0)
 3001ca2:	4398                	lw	a4,0(a5)
 3001ca4:	87b6                	mv	a5,a3
 3001ca6:	8b8d                	andi	a5,a5,3
 3001ca8:	0ff7f693          	andi	a3,a5,255
 3001cac:	10072783          	lw	a5,256(a4)
 3001cb0:	8a8d                	andi	a3,a3,3
 3001cb2:	06ca                	slli	a3,a3,0x12
 3001cb4:	fff40637          	lui	a2,0xfff40
 3001cb8:	167d                	addi	a2,a2,-1 # fff3ffff <RAM_END+0xfbf37fff>
 3001cba:	8ff1                	and	a5,a5,a2
 3001cbc:	8fd5                	or	a5,a5,a3
 3001cbe:	10f72023          	sw	a5,256(a4)
 3001cc2:	0001                	nop
 3001cc4:	0001                	nop
 3001cc6:	4472                	lw	s0,28(sp)
 3001cc8:	6105                	addi	sp,sp,32
 3001cca:	8082                	ret

03001ccc <APT_SetOutputBBasicType>:
 3001ccc:	1101                	addi	sp,sp,-32
 3001cce:	ce22                	sw	s0,28(sp)
 3001cd0:	1000                	addi	s0,sp,32
 3001cd2:	fea42623          	sw	a0,-20(s0)
 3001cd6:	feb42423          	sw	a1,-24(s0)
 3001cda:	fec42783          	lw	a5,-20(s0)
 3001cde:	4b9c                	lw	a5,16(a5)
 3001ce0:	4705                	li	a4,1
 3001ce2:	06e78363          	beq	a5,a4,3001d48 <APT_SetOutputBBasicType+0x7c>
 3001ce6:	4705                	li	a4,1
 3001ce8:	00e7e663          	bltu	a5,a4,3001cf4 <APT_SetOutputBBasicType+0x28>
 3001cec:	4709                	li	a4,2
 3001cee:	0ae78763          	beq	a5,a4,3001d9c <APT_SetOutputBBasicType+0xd0>
 3001cf2:	a8fd                	j	3001df0 <APT_SetOutputBBasicType+0x124>
 3001cf4:	fe842783          	lw	a5,-24(s0)
 3001cf8:	4794                	lw	a3,8(a5)
 3001cfa:	fec42783          	lw	a5,-20(s0)
 3001cfe:	4398                	lw	a4,0(a5)
 3001d00:	87b6                	mv	a5,a3
 3001d02:	8b8d                	andi	a5,a5,3
 3001d04:	0ff7f693          	andi	a3,a5,255
 3001d08:	10472783          	lw	a5,260(a4)
 3001d0c:	8a8d                	andi	a3,a3,3
 3001d0e:	06b2                	slli	a3,a3,0xc
 3001d10:	7675                	lui	a2,0xffffd
 3001d12:	167d                	addi	a2,a2,-1 # ffffcfff <RAM_END+0xfbff4fff>
 3001d14:	8ff1                	and	a5,a5,a2
 3001d16:	8fd5                	or	a5,a5,a3
 3001d18:	10f72223          	sw	a5,260(a4)
 3001d1c:	fe842783          	lw	a5,-24(s0)
 3001d20:	47d4                	lw	a3,12(a5)
 3001d22:	fec42783          	lw	a5,-20(s0)
 3001d26:	4398                	lw	a4,0(a5)
 3001d28:	87b6                	mv	a5,a3
 3001d2a:	8b8d                	andi	a5,a5,3
 3001d2c:	0ff7f693          	andi	a3,a5,255
 3001d30:	10472783          	lw	a5,260(a4)
 3001d34:	8a8d                	andi	a3,a3,3
 3001d36:	06c2                	slli	a3,a3,0x10
 3001d38:	fffd0637          	lui	a2,0xfffd0
 3001d3c:	167d                	addi	a2,a2,-1 # fffcffff <RAM_END+0xfbfc7fff>
 3001d3e:	8ff1                	and	a5,a5,a2
 3001d40:	8fd5                	or	a5,a5,a3
 3001d42:	10f72223          	sw	a5,260(a4)
 3001d46:	a06d                	j	3001df0 <APT_SetOutputBBasicType+0x124>
 3001d48:	fe842783          	lw	a5,-24(s0)
 3001d4c:	47d4                	lw	a3,12(a5)
 3001d4e:	fec42783          	lw	a5,-20(s0)
 3001d52:	4398                	lw	a4,0(a5)
 3001d54:	87b6                	mv	a5,a3
 3001d56:	8b8d                	andi	a5,a5,3
 3001d58:	0ff7f693          	andi	a3,a5,255
 3001d5c:	10472783          	lw	a5,260(a4)
 3001d60:	8a8d                	andi	a3,a3,3
 3001d62:	06ba                	slli	a3,a3,0xe
 3001d64:	7651                	lui	a2,0xffff4
 3001d66:	167d                	addi	a2,a2,-1 # ffff3fff <RAM_END+0xfbfebfff>
 3001d68:	8ff1                	and	a5,a5,a2
 3001d6a:	8fd5                	or	a5,a5,a3
 3001d6c:	10f72223          	sw	a5,260(a4)
 3001d70:	fe842783          	lw	a5,-24(s0)
 3001d74:	4794                	lw	a3,8(a5)
 3001d76:	fec42783          	lw	a5,-20(s0)
 3001d7a:	4398                	lw	a4,0(a5)
 3001d7c:	87b6                	mv	a5,a3
 3001d7e:	8b8d                	andi	a5,a5,3
 3001d80:	0ff7f693          	andi	a3,a5,255
 3001d84:	10472783          	lw	a5,260(a4)
 3001d88:	8a8d                	andi	a3,a3,3
 3001d8a:	06ca                	slli	a3,a3,0x12
 3001d8c:	fff40637          	lui	a2,0xfff40
 3001d90:	167d                	addi	a2,a2,-1 # fff3ffff <RAM_END+0xfbf37fff>
 3001d92:	8ff1                	and	a5,a5,a2
 3001d94:	8fd5                	or	a5,a5,a3
 3001d96:	10f72223          	sw	a5,260(a4)
 3001d9a:	a899                	j	3001df0 <APT_SetOutputBBasicType+0x124>
 3001d9c:	fe842783          	lw	a5,-24(s0)
 3001da0:	4794                	lw	a3,8(a5)
 3001da2:	fec42783          	lw	a5,-20(s0)
 3001da6:	4398                	lw	a4,0(a5)
 3001da8:	87b6                	mv	a5,a3
 3001daa:	8b8d                	andi	a5,a5,3
 3001dac:	0ff7f693          	andi	a3,a5,255
 3001db0:	10472783          	lw	a5,260(a4)
 3001db4:	8a8d                	andi	a3,a3,3
 3001db6:	06b2                	slli	a3,a3,0xc
 3001db8:	7675                	lui	a2,0xffffd
 3001dba:	167d                	addi	a2,a2,-1 # ffffcfff <RAM_END+0xfbff4fff>
 3001dbc:	8ff1                	and	a5,a5,a2
 3001dbe:	8fd5                	or	a5,a5,a3
 3001dc0:	10f72223          	sw	a5,260(a4)
 3001dc4:	fe842783          	lw	a5,-24(s0)
 3001dc8:	47d4                	lw	a3,12(a5)
 3001dca:	fec42783          	lw	a5,-20(s0)
 3001dce:	4398                	lw	a4,0(a5)
 3001dd0:	87b6                	mv	a5,a3
 3001dd2:	8b8d                	andi	a5,a5,3
 3001dd4:	0ff7f693          	andi	a3,a5,255
 3001dd8:	10472783          	lw	a5,260(a4)
 3001ddc:	8a8d                	andi	a3,a3,3
 3001dde:	06ca                	slli	a3,a3,0x12
 3001de0:	fff40637          	lui	a2,0xfff40
 3001de4:	167d                	addi	a2,a2,-1 # fff3ffff <RAM_END+0xfbf37fff>
 3001de6:	8ff1                	and	a5,a5,a2
 3001de8:	8fd5                	or	a5,a5,a3
 3001dea:	10f72223          	sw	a5,260(a4)
 3001dee:	0001                	nop
 3001df0:	0001                	nop
 3001df2:	4472                	lw	s0,28(sp)
 3001df4:	6105                	addi	sp,sp,32
 3001df6:	8082                	ret

03001df8 <APT_SetPWMBasicType>:
 3001df8:	1101                	addi	sp,sp,-32
 3001dfa:	ce06                	sw	ra,28(sp)
 3001dfc:	cc22                	sw	s0,24(sp)
 3001dfe:	1000                	addi	s0,sp,32
 3001e00:	fea42623          	sw	a0,-20(s0)
 3001e04:	feb42423          	sw	a1,-24(s0)
 3001e08:	fec42783          	lw	a5,-20(s0)
 3001e0c:	479c                	lw	a5,8(a5)
 3001e0e:	e791                	bnez	a5,3001e1a <APT_SetPWMBasicType+0x22>
 3001e10:	fe842583          	lw	a1,-24(s0)
 3001e14:	fec42503          	lw	a0,-20(s0)
 3001e18:	3361                	jal	ra,3001ba0 <APT_SetOutputABasicType>
 3001e1a:	fec42783          	lw	a5,-20(s0)
 3001e1e:	47dc                	lw	a5,12(a5)
 3001e20:	e791                	bnez	a5,3001e2c <APT_SetPWMBasicType+0x34>
 3001e22:	fe842583          	lw	a1,-24(s0)
 3001e26:	fec42503          	lw	a0,-20(s0)
 3001e2a:	354d                	jal	ra,3001ccc <APT_SetOutputBBasicType>
 3001e2c:	fec42783          	lw	a5,-20(s0)
 3001e30:	479c                	lw	a5,8(a5)
 3001e32:	eff1                	bnez	a5,3001f0e <APT_SetPWMBasicType+0x116>
 3001e34:	fec42783          	lw	a5,-20(s0)
 3001e38:	47dc                	lw	a5,12(a5)
 3001e3a:	ebf1                	bnez	a5,3001f0e <APT_SetPWMBasicType+0x116>
 3001e3c:	fe842783          	lw	a5,-24(s0)
 3001e40:	4b94                	lw	a3,16(a5)
 3001e42:	fec42783          	lw	a5,-20(s0)
 3001e46:	4398                	lw	a4,0(a5)
 3001e48:	87b6                	mv	a5,a3
 3001e4a:	8b8d                	andi	a5,a5,3
 3001e4c:	0ff7f693          	andi	a3,a5,255
 3001e50:	20872783          	lw	a5,520(a4)
 3001e54:	8a8d                	andi	a3,a3,3
 3001e56:	9bf1                	andi	a5,a5,-4
 3001e58:	8fd5                	or	a5,a5,a3
 3001e5a:	20f72423          	sw	a5,520(a4)
 3001e5e:	fe842783          	lw	a5,-24(s0)
 3001e62:	4bd4                	lw	a3,20(a5)
 3001e64:	fec42783          	lw	a5,-20(s0)
 3001e68:	4398                	lw	a4,0(a5)
 3001e6a:	87b6                	mv	a5,a3
 3001e6c:	8b8d                	andi	a5,a5,3
 3001e6e:	0ff7f693          	andi	a3,a5,255
 3001e72:	20872783          	lw	a5,520(a4)
 3001e76:	8a8d                	andi	a3,a3,3
 3001e78:	0692                	slli	a3,a3,0x4
 3001e7a:	fcf7f793          	andi	a5,a5,-49
 3001e7e:	8fd5                	or	a5,a5,a3
 3001e80:	20f72423          	sw	a5,520(a4)
 3001e84:	fec42783          	lw	a5,-20(s0)
 3001e88:	4398                	lw	a4,0(a5)
 3001e8a:	fec42783          	lw	a5,-20(s0)
 3001e8e:	3792                	lhu	a2,40(a5)
 3001e90:	20072783          	lw	a5,512(a4)
 3001e94:	66c1                	lui	a3,0x10
 3001e96:	16fd                	addi	a3,a3,-1 # ffff <RAM_SIZE+0xafff>
 3001e98:	8ef1                	and	a3,a3,a2
 3001e9a:	7641                	lui	a2,0xffff0
 3001e9c:	8ff1                	and	a5,a5,a2
 3001e9e:	8fd5                	or	a5,a5,a3
 3001ea0:	20f72023          	sw	a5,512(a4)
 3001ea4:	fe842783          	lw	a5,-24(s0)
 3001ea8:	4f94                	lw	a3,24(a5)
 3001eaa:	fec42783          	lw	a5,-20(s0)
 3001eae:	4398                	lw	a4,0(a5)
 3001eb0:	87b6                	mv	a5,a3
 3001eb2:	8b8d                	andi	a5,a5,3
 3001eb4:	0ff7f693          	andi	a3,a5,255
 3001eb8:	20872783          	lw	a5,520(a4)
 3001ebc:	8a8d                	andi	a3,a3,3
 3001ebe:	068a                	slli	a3,a3,0x2
 3001ec0:	9bcd                	andi	a5,a5,-13
 3001ec2:	8fd5                	or	a5,a5,a3
 3001ec4:	20f72423          	sw	a5,520(a4)
 3001ec8:	fe842783          	lw	a5,-24(s0)
 3001ecc:	4fd4                	lw	a3,28(a5)
 3001ece:	fec42783          	lw	a5,-20(s0)
 3001ed2:	4398                	lw	a4,0(a5)
 3001ed4:	87b6                	mv	a5,a3
 3001ed6:	8b8d                	andi	a5,a5,3
 3001ed8:	0ff7f693          	andi	a3,a5,255
 3001edc:	20872783          	lw	a5,520(a4)
 3001ee0:	8a8d                	andi	a3,a3,3
 3001ee2:	069a                	slli	a3,a3,0x6
 3001ee4:	f3f7f793          	andi	a5,a5,-193
 3001ee8:	8fd5                	or	a5,a5,a3
 3001eea:	20f72423          	sw	a5,520(a4)
 3001eee:	fec42783          	lw	a5,-20(s0)
 3001ef2:	4398                	lw	a4,0(a5)
 3001ef4:	fec42783          	lw	a5,-20(s0)
 3001ef8:	3792                	lhu	a2,40(a5)
 3001efa:	20472783          	lw	a5,516(a4)
 3001efe:	66c1                	lui	a3,0x10
 3001f00:	16fd                	addi	a3,a3,-1 # ffff <RAM_SIZE+0xafff>
 3001f02:	8ef1                	and	a3,a3,a2
 3001f04:	7641                	lui	a2,0xffff0
 3001f06:	8ff1                	and	a5,a5,a2
 3001f08:	8fd5                	or	a5,a5,a3
 3001f0a:	20f72223          	sw	a5,516(a4)
 3001f0e:	0001                	nop
 3001f10:	40f2                	lw	ra,28(sp)
 3001f12:	4462                	lw	s0,24(sp)
 3001f14:	6105                	addi	sp,sp,32
 3001f16:	8082                	ret

03001f18 <APT_SetContWaveform>:
 3001f18:	7179                	addi	sp,sp,-48
 3001f1a:	d622                	sw	s0,44(sp)
 3001f1c:	1800                	addi	s0,sp,48
 3001f1e:	fca42e23          	sw	a0,-36(s0)
 3001f22:	fdc42783          	lw	a5,-36(s0)
 3001f26:	479c                	lw	a5,8(a5)
 3001f28:	cb9d                	beqz	a5,3001f5e <APT_SetContWaveform+0x46>
 3001f2a:	fdc42783          	lw	a5,-36(s0)
 3001f2e:	4798                	lw	a4,8(a5)
 3001f30:	4785                	li	a5,1
 3001f32:	00f71463          	bne	a4,a5,3001f3a <APT_SetContWaveform+0x22>
 3001f36:	4785                	li	a5,1
 3001f38:	a011                	j	3001f3c <APT_SetContWaveform+0x24>
 3001f3a:	4789                	li	a5,2
 3001f3c:	fef42623          	sw	a5,-20(s0)
 3001f40:	fdc42783          	lw	a5,-36(s0)
 3001f44:	4398                	lw	a4,0(a5)
 3001f46:	fec42783          	lw	a5,-20(s0)
 3001f4a:	8b8d                	andi	a5,a5,3
 3001f4c:	0ff7f693          	andi	a3,a5,255
 3001f50:	10072783          	lw	a5,256(a4)
 3001f54:	8a8d                	andi	a3,a3,3
 3001f56:	9bf1                	andi	a5,a5,-4
 3001f58:	8fd5                	or	a5,a5,a3
 3001f5a:	10f72023          	sw	a5,256(a4)
 3001f5e:	fdc42783          	lw	a5,-36(s0)
 3001f62:	47dc                	lw	a5,12(a5)
 3001f64:	cb9d                	beqz	a5,3001f9a <APT_SetContWaveform+0x82>
 3001f66:	fdc42783          	lw	a5,-36(s0)
 3001f6a:	47d8                	lw	a4,12(a5)
 3001f6c:	4785                	li	a5,1
 3001f6e:	00f71463          	bne	a4,a5,3001f76 <APT_SetContWaveform+0x5e>
 3001f72:	4785                	li	a5,1
 3001f74:	a011                	j	3001f78 <APT_SetContWaveform+0x60>
 3001f76:	4789                	li	a5,2
 3001f78:	fef42423          	sw	a5,-24(s0)
 3001f7c:	fdc42783          	lw	a5,-36(s0)
 3001f80:	4398                	lw	a4,0(a5)
 3001f82:	fe842783          	lw	a5,-24(s0)
 3001f86:	8b8d                	andi	a5,a5,3
 3001f88:	0ff7f693          	andi	a3,a5,255
 3001f8c:	10472783          	lw	a5,260(a4)
 3001f90:	8a8d                	andi	a3,a3,3
 3001f92:	9bf1                	andi	a5,a5,-4
 3001f94:	8fd5                	or	a5,a5,a3
 3001f96:	10f72223          	sw	a5,260(a4)
 3001f9a:	0001                	nop
 3001f9c:	5432                	lw	s0,44(sp)
 3001f9e:	6145                	addi	sp,sp,48
 3001fa0:	8082                	ret

03001fa2 <APT_SetPWMWaveform>:
 3001fa2:	7139                	addi	sp,sp,-64
 3001fa4:	de06                	sw	ra,60(sp)
 3001fa6:	dc22                	sw	s0,56(sp)
 3001fa8:	0080                	addi	s0,sp,64
 3001faa:	fca42623          	sw	a0,-52(s0)
 3001fae:	fcc42503          	lw	a0,-52(s0)
 3001fb2:	379d                	jal	ra,3001f18 <APT_SetContWaveform>
 3001fb4:	fc042823          	sw	zero,-48(s0)
 3001fb8:	fc042a23          	sw	zero,-44(s0)
 3001fbc:	fc042c23          	sw	zero,-40(s0)
 3001fc0:	fc042e23          	sw	zero,-36(s0)
 3001fc4:	fe042023          	sw	zero,-32(s0)
 3001fc8:	fe042223          	sw	zero,-28(s0)
 3001fcc:	fe042423          	sw	zero,-24(s0)
 3001fd0:	fe042623          	sw	zero,-20(s0)
 3001fd4:	fcc42783          	lw	a5,-52(s0)
 3001fd8:	43dc                	lw	a5,4(a5)
 3001fda:	4705                	li	a4,1
 3001fdc:	04e78263          	beq	a5,a4,3002020 <APT_SetPWMWaveform+0x7e>
 3001fe0:	4705                	li	a4,1
 3001fe2:	00e7e963          	bltu	a5,a4,3001ff4 <APT_SetPWMWaveform+0x52>
 3001fe6:	4709                	li	a4,2
 3001fe8:	06e78463          	beq	a5,a4,3002050 <APT_SetPWMWaveform+0xae>
 3001fec:	470d                	li	a4,3
 3001fee:	08e78663          	beq	a5,a4,300207a <APT_SetPWMWaveform+0xd8>
 3001ff2:	a85d                	j	30020a8 <APT_SetPWMWaveform+0x106>
 3001ff4:	4789                	li	a5,2
 3001ff6:	fcf42823          	sw	a5,-48(s0)
 3001ffa:	4785                	li	a5,1
 3001ffc:	fcf42a23          	sw	a5,-44(s0)
 3002000:	4789                	li	a5,2
 3002002:	fcf42c23          	sw	a5,-40(s0)
 3002006:	4785                	li	a5,1
 3002008:	fcf42e23          	sw	a5,-36(s0)
 300200c:	fe042023          	sw	zero,-32(s0)
 3002010:	fe042223          	sw	zero,-28(s0)
 3002014:	fe042423          	sw	zero,-24(s0)
 3002018:	4789                	li	a5,2
 300201a:	fef42623          	sw	a5,-20(s0)
 300201e:	a069                	j	30020a8 <APT_SetPWMWaveform+0x106>
 3002020:	4785                	li	a5,1
 3002022:	fcf42823          	sw	a5,-48(s0)
 3002026:	4789                	li	a5,2
 3002028:	fcf42a23          	sw	a5,-44(s0)
 300202c:	4785                	li	a5,1
 300202e:	fcf42c23          	sw	a5,-40(s0)
 3002032:	4789                	li	a5,2
 3002034:	fcf42e23          	sw	a5,-36(s0)
 3002038:	4785                	li	a5,1
 300203a:	fef42423          	sw	a5,-24(s0)
 300203e:	4789                	li	a5,2
 3002040:	fef42623          	sw	a5,-20(s0)
 3002044:	4785                	li	a5,1
 3002046:	fef42023          	sw	a5,-32(s0)
 300204a:	fe042223          	sw	zero,-28(s0)
 300204e:	a8a9                	j	30020a8 <APT_SetPWMWaveform+0x106>
 3002050:	4789                	li	a5,2
 3002052:	fcf42823          	sw	a5,-48(s0)
 3002056:	4785                	li	a5,1
 3002058:	fcf42a23          	sw	a5,-44(s0)
 300205c:	4789                	li	a5,2
 300205e:	fcf42c23          	sw	a5,-40(s0)
 3002062:	4785                	li	a5,1
 3002064:	fcf42e23          	sw	a5,-36(s0)
 3002068:	fe042023          	sw	zero,-32(s0)
 300206c:	fe042223          	sw	zero,-28(s0)
 3002070:	fe042423          	sw	zero,-24(s0)
 3002074:	fe042623          	sw	zero,-20(s0)
 3002078:	a805                	j	30020a8 <APT_SetPWMWaveform+0x106>
 300207a:	4785                	li	a5,1
 300207c:	fcf42823          	sw	a5,-48(s0)
 3002080:	4789                	li	a5,2
 3002082:	fcf42a23          	sw	a5,-44(s0)
 3002086:	4785                	li	a5,1
 3002088:	fcf42c23          	sw	a5,-40(s0)
 300208c:	4789                	li	a5,2
 300208e:	fcf42e23          	sw	a5,-36(s0)
 3002092:	4785                	li	a5,1
 3002094:	fef42423          	sw	a5,-24(s0)
 3002098:	fe042623          	sw	zero,-20(s0)
 300209c:	4785                	li	a5,1
 300209e:	fef42023          	sw	a5,-32(s0)
 30020a2:	fe042223          	sw	zero,-28(s0)
 30020a6:	0001                	nop
 30020a8:	fd040793          	addi	a5,s0,-48
 30020ac:	85be                	mv	a1,a5
 30020ae:	fcc42503          	lw	a0,-52(s0)
 30020b2:	3399                	jal	ra,3001df8 <APT_SetPWMBasicType>
 30020b4:	0001                	nop
 30020b6:	50f2                	lw	ra,60(sp)
 30020b8:	5462                	lw	s0,56(sp)
 30020ba:	6121                	addi	sp,sp,64
 30020bc:	8082                	ret

030020be <APT_SetADCTrgCompareVal>:
 30020be:	7179                	addi	sp,sp,-48
 30020c0:	d622                	sw	s0,44(sp)
 30020c2:	1800                	addi	s0,sp,48
 30020c4:	fca42e23          	sw	a0,-36(s0)
 30020c8:	fdc42783          	lw	a5,-36(s0)
 30020cc:	439c                	lw	a5,0(a5)
 30020ce:	5b9c                	lw	a5,48(a5)
 30020d0:	fef42223          	sw	a5,-28(s0)
 30020d4:	fdc42783          	lw	a5,-36(s0)
 30020d8:	3bf6                	lhu	a3,54(a5)
 30020da:	fe442783          	lw	a5,-28(s0)
 30020de:	6741                	lui	a4,0x10
 30020e0:	177d                	addi	a4,a4,-1 # ffff <RAM_SIZE+0xafff>
 30020e2:	8f75                	and	a4,a4,a3
 30020e4:	76c1                	lui	a3,0xffff0
 30020e6:	8ff5                	and	a5,a5,a3
 30020e8:	8fd9                	or	a5,a5,a4
 30020ea:	fef42223          	sw	a5,-28(s0)
 30020ee:	fdc42783          	lw	a5,-36(s0)
 30020f2:	439c                	lw	a5,0(a5)
 30020f4:	fe442703          	lw	a4,-28(s0)
 30020f8:	db98                	sw	a4,48(a5)
 30020fa:	fdc42783          	lw	a5,-36(s0)
 30020fe:	439c                	lw	a5,0(a5)
 3002100:	5bdc                	lw	a5,52(a5)
 3002102:	fef42023          	sw	a5,-32(s0)
 3002106:	fdc42783          	lw	a5,-36(s0)
 300210a:	0427d683          	lhu	a3,66(a5)
 300210e:	fe042783          	lw	a5,-32(s0)
 3002112:	6741                	lui	a4,0x10
 3002114:	177d                	addi	a4,a4,-1 # ffff <RAM_SIZE+0xafff>
 3002116:	8f75                	and	a4,a4,a3
 3002118:	76c1                	lui	a3,0xffff0
 300211a:	8ff5                	and	a5,a5,a3
 300211c:	8fd9                	or	a5,a5,a4
 300211e:	fef42023          	sw	a5,-32(s0)
 3002122:	fdc42783          	lw	a5,-36(s0)
 3002126:	439c                	lw	a5,0(a5)
 3002128:	fe042703          	lw	a4,-32(s0)
 300212c:	dbd8                	sw	a4,52(a5)
 300212e:	fdc42783          	lw	a5,-36(s0)
 3002132:	43fc                	lw	a5,68(a5)
 3002134:	ef99                	bnez	a5,3002152 <APT_SetADCTrgCompareVal+0x94>
 3002136:	fdc42783          	lw	a5,-36(s0)
 300213a:	4398                	lw	a4,0(a5)
 300213c:	4b3c                	lw	a5,80(a4)
 300213e:	9bbd                	andi	a5,a5,-17
 3002140:	cb3c                	sw	a5,80(a4)
 3002142:	fdc42783          	lw	a5,-36(s0)
 3002146:	4398                	lw	a4,0(a5)
 3002148:	4b3c                	lw	a5,80(a4)
 300214a:	fbf7f793          	andi	a5,a5,-65
 300214e:	cb3c                	sw	a5,80(a4)
 3002150:	a291                	j	3002294 <APT_SetADCTrgCompareVal+0x1d6>
 3002152:	fdc42783          	lw	a5,-36(s0)
 3002156:	4398                	lw	a4,0(a5)
 3002158:	4b3c                	lw	a5,80(a4)
 300215a:	0107e793          	ori	a5,a5,16
 300215e:	cb3c                	sw	a5,80(a4)
 3002160:	fdc42783          	lw	a5,-36(s0)
 3002164:	4398                	lw	a4,0(a5)
 3002166:	4b3c                	lw	a5,80(a4)
 3002168:	0407e793          	ori	a5,a5,64
 300216c:	cb3c                	sw	a5,80(a4)
 300216e:	fdc42783          	lw	a5,-36(s0)
 3002172:	43fc                	lw	a5,68(a5)
 3002174:	17f5                	addi	a5,a5,-3
 3002176:	0017b793          	seqz	a5,a5
 300217a:	9f81                	uxtb	a5
 300217c:	fef42623          	sw	a5,-20(s0)
 3002180:	fdc42783          	lw	a5,-36(s0)
 3002184:	4398                	lw	a4,0(a5)
 3002186:	fec42783          	lw	a5,-20(s0)
 300218a:	8b85                	andi	a5,a5,1
 300218c:	0ff7f693          	andi	a3,a5,255
 3002190:	4b3c                	lw	a5,80(a4)
 3002192:	8a85                	andi	a3,a3,1
 3002194:	0696                	slli	a3,a3,0x5
 3002196:	fdf7f793          	andi	a5,a5,-33
 300219a:	8fd5                	or	a5,a5,a3
 300219c:	cb3c                	sw	a5,80(a4)
 300219e:	fdc42783          	lw	a5,-36(s0)
 30021a2:	4398                	lw	a4,0(a5)
 30021a4:	fec42783          	lw	a5,-20(s0)
 30021a8:	8b85                	andi	a5,a5,1
 30021aa:	0ff7f693          	andi	a3,a5,255
 30021ae:	4b3c                	lw	a5,80(a4)
 30021b0:	8a85                	andi	a3,a3,1
 30021b2:	069e                	slli	a3,a3,0x7
 30021b4:	f7f7f793          	andi	a5,a5,-129
 30021b8:	8fd5                	or	a5,a5,a3
 30021ba:	cb3c                	sw	a5,80(a4)
 30021bc:	47a1                	li	a5,8
 30021be:	fef42423          	sw	a5,-24(s0)
 30021c2:	fdc42783          	lw	a5,-36(s0)
 30021c6:	439c                	lw	a5,0(a5)
 30021c8:	4fb8                	lw	a4,88(a5)
 30021ca:	fdc42783          	lw	a5,-36(s0)
 30021ce:	439c                	lw	a5,0(a5)
 30021d0:	9b01                	andi	a4,a4,-32
 30021d2:	cfb8                	sw	a4,88(a5)
 30021d4:	fdc42783          	lw	a5,-36(s0)
 30021d8:	439c                	lw	a5,0(a5)
 30021da:	4fb8                	lw	a4,88(a5)
 30021dc:	46fd                	li	a3,31
 30021de:	fe842783          	lw	a5,-24(s0)
 30021e2:	00f697b3          	sll	a5,a3,a5
 30021e6:	fff7c793          	not	a5,a5
 30021ea:	86be                	mv	a3,a5
 30021ec:	fdc42783          	lw	a5,-36(s0)
 30021f0:	439c                	lw	a5,0(a5)
 30021f2:	8f75                	and	a4,a4,a3
 30021f4:	cfb8                	sw	a4,88(a5)
 30021f6:	fdc42783          	lw	a5,-36(s0)
 30021fa:	439c                	lw	a5,0(a5)
 30021fc:	4fb4                	lw	a3,88(a5)
 30021fe:	fdc42783          	lw	a5,-36(s0)
 3002202:	47b8                	lw	a4,72(a5)
 3002204:	fdc42783          	lw	a5,-36(s0)
 3002208:	439c                	lw	a5,0(a5)
 300220a:	8f55                	or	a4,a4,a3
 300220c:	cfb8                	sw	a4,88(a5)
 300220e:	fdc42783          	lw	a5,-36(s0)
 3002212:	439c                	lw	a5,0(a5)
 3002214:	4fb4                	lw	a3,88(a5)
 3002216:	fdc42783          	lw	a5,-36(s0)
 300221a:	47b8                	lw	a4,72(a5)
 300221c:	fe842783          	lw	a5,-24(s0)
 3002220:	00f71733          	sll	a4,a4,a5
 3002224:	fdc42783          	lw	a5,-36(s0)
 3002228:	439c                	lw	a5,0(a5)
 300222a:	8f55                	or	a4,a4,a3
 300222c:	cfb8                	sw	a4,88(a5)
 300222e:	fdc42783          	lw	a5,-36(s0)
 3002232:	439c                	lw	a5,0(a5)
 3002234:	5b9c                	lw	a5,48(a5)
 3002236:	fef42223          	sw	a5,-28(s0)
 300223a:	fdc42783          	lw	a5,-36(s0)
 300223e:	3bf6                	lhu	a3,54(a5)
 3002240:	fe442783          	lw	a5,-28(s0)
 3002244:	6741                	lui	a4,0x10
 3002246:	177d                	addi	a4,a4,-1 # ffff <RAM_SIZE+0xafff>
 3002248:	8f75                	and	a4,a4,a3
 300224a:	76c1                	lui	a3,0xffff0
 300224c:	8ff5                	and	a5,a5,a3
 300224e:	8fd9                	or	a5,a5,a4
 3002250:	fef42223          	sw	a5,-28(s0)
 3002254:	fdc42783          	lw	a5,-36(s0)
 3002258:	439c                	lw	a5,0(a5)
 300225a:	fe442703          	lw	a4,-28(s0)
 300225e:	db98                	sw	a4,48(a5)
 3002260:	fdc42783          	lw	a5,-36(s0)
 3002264:	439c                	lw	a5,0(a5)
 3002266:	5bdc                	lw	a5,52(a5)
 3002268:	fef42023          	sw	a5,-32(s0)
 300226c:	fdc42783          	lw	a5,-36(s0)
 3002270:	0427d683          	lhu	a3,66(a5)
 3002274:	fe042783          	lw	a5,-32(s0)
 3002278:	6741                	lui	a4,0x10
 300227a:	177d                	addi	a4,a4,-1 # ffff <RAM_SIZE+0xafff>
 300227c:	8f75                	and	a4,a4,a3
 300227e:	76c1                	lui	a3,0xffff0
 3002280:	8ff5                	and	a5,a5,a3
 3002282:	8fd9                	or	a5,a5,a4
 3002284:	fef42023          	sw	a5,-32(s0)
 3002288:	fdc42783          	lw	a5,-36(s0)
 300228c:	439c                	lw	a5,0(a5)
 300228e:	fe042703          	lw	a4,-32(s0)
 3002292:	dbd8                	sw	a4,52(a5)
 3002294:	0001                	nop
 3002296:	5432                	lw	s0,44(sp)
 3002298:	6145                	addi	sp,sp,48
 300229a:	8082                	ret

0300229c <APT_SetADCTrigger>:
 300229c:	1101                	addi	sp,sp,-32
 300229e:	ce06                	sw	ra,28(sp)
 30022a0:	cc22                	sw	s0,24(sp)
 30022a2:	1000                	addi	s0,sp,32
 30022a4:	fea42623          	sw	a0,-20(s0)
 30022a8:	fec42783          	lw	a5,-20(s0)
 30022ac:	3bda                	lhu	a4,52(a5)
 30022ae:	47bd                	li	a5,15
 30022b0:	00e7fa63          	bgeu	a5,a4,30022c4 <APT_SetADCTrigger+0x28>
 30022b4:	13e00593          	li	a1,318
 30022b8:	030107b7          	lui	a5,0x3010
 30022bc:	11c78513          	addi	a0,a5,284 # 301011c <g_crgIpMatch+0x27c>
 30022c0:	26a9                	jal	ra,300260a <AssertErrorLog.trans.1>
 30022c2:	a0fd                	j	30023b0 <APT_SetADCTrigger+0x114>
 30022c4:	fec42783          	lw	a5,-20(s0)
 30022c8:	0407d703          	lhu	a4,64(a5)
 30022cc:	47bd                	li	a5,15
 30022ce:	00e7fa63          	bgeu	a5,a4,30022e2 <APT_SetADCTrigger+0x46>
 30022d2:	13f00593          	li	a1,319
 30022d6:	030107b7          	lui	a5,0x3010
 30022da:	11c78513          	addi	a0,a5,284 # 301011c <g_crgIpMatch+0x27c>
 30022de:	2635                	jal	ra,300260a <AssertErrorLog.trans.1>
 30022e0:	a8c1                	j	30023b0 <APT_SetADCTrigger+0x114>
 30022e2:	fec42783          	lw	a5,-20(s0)
 30022e6:	5b94                	lw	a3,48(a5)
 30022e8:	fec42783          	lw	a5,-20(s0)
 30022ec:	4398                	lw	a4,0(a5)
 30022ee:	87b6                	mv	a5,a3
 30022f0:	8bbd                	andi	a5,a5,15
 30022f2:	0ff7f693          	andi	a3,a5,255
 30022f6:	50072783          	lw	a5,1280(a4)
 30022fa:	8abd                	andi	a3,a3,15
 30022fc:	9bc1                	andi	a5,a5,-16
 30022fe:	8fd5                	or	a5,a5,a3
 3002300:	50f72023          	sw	a5,1280(a4)
 3002304:	fec42783          	lw	a5,-20(s0)
 3002308:	3bd6                	lhu	a3,52(a5)
 300230a:	fec42783          	lw	a5,-20(s0)
 300230e:	4398                	lw	a4,0(a5)
 3002310:	87b6                	mv	a5,a3
 3002312:	8bbd                	andi	a5,a5,15
 3002314:	0ff7f693          	andi	a3,a5,255
 3002318:	50872783          	lw	a5,1288(a4)
 300231c:	8abd                	andi	a3,a3,15
 300231e:	9bc1                	andi	a5,a5,-16
 3002320:	8fd5                	or	a5,a5,a3
 3002322:	50f72423          	sw	a5,1288(a4)
 3002326:	fec42783          	lw	a5,-20(s0)
 300232a:	4398                	lw	a4,0(a5)
 300232c:	fec42783          	lw	a5,-20(s0)
 3002330:	02c7c683          	lbu	a3,44(a5)
 3002334:	50072783          	lw	a5,1280(a4)
 3002338:	8a85                	andi	a3,a3,1
 300233a:	06c2                	slli	a3,a3,0x10
 300233c:	7641                	lui	a2,0xffff0
 300233e:	167d                	addi	a2,a2,-1 # fffeffff <RAM_END+0xfbfe7fff>
 3002340:	8ff1                	and	a5,a5,a2
 3002342:	8fd5                	or	a5,a5,a3
 3002344:	50f72023          	sw	a5,1280(a4)
 3002348:	fec42783          	lw	a5,-20(s0)
 300234c:	5fd4                	lw	a3,60(a5)
 300234e:	fec42783          	lw	a5,-20(s0)
 3002352:	4398                	lw	a4,0(a5)
 3002354:	87b6                	mv	a5,a3
 3002356:	8bbd                	andi	a5,a5,15
 3002358:	0ff7f693          	andi	a3,a5,255
 300235c:	50472783          	lw	a5,1284(a4)
 3002360:	8abd                	andi	a3,a3,15
 3002362:	9bc1                	andi	a5,a5,-16
 3002364:	8fd5                	or	a5,a5,a3
 3002366:	50f72223          	sw	a5,1284(a4)
 300236a:	fec42783          	lw	a5,-20(s0)
 300236e:	0407d683          	lhu	a3,64(a5)
 3002372:	fec42783          	lw	a5,-20(s0)
 3002376:	4398                	lw	a4,0(a5)
 3002378:	87b6                	mv	a5,a3
 300237a:	8bbd                	andi	a5,a5,15
 300237c:	0ff7f693          	andi	a3,a5,255
 3002380:	50c72783          	lw	a5,1292(a4)
 3002384:	8abd                	andi	a3,a3,15
 3002386:	9bc1                	andi	a5,a5,-16
 3002388:	8fd5                	or	a5,a5,a3
 300238a:	50f72623          	sw	a5,1292(a4)
 300238e:	fec42783          	lw	a5,-20(s0)
 3002392:	4398                	lw	a4,0(a5)
 3002394:	fec42783          	lw	a5,-20(s0)
 3002398:	0387c683          	lbu	a3,56(a5)
 300239c:	50472783          	lw	a5,1284(a4)
 30023a0:	8a85                	andi	a3,a3,1
 30023a2:	06c2                	slli	a3,a3,0x10
 30023a4:	7641                	lui	a2,0xffff0
 30023a6:	167d                	addi	a2,a2,-1 # fffeffff <RAM_END+0xfbfe7fff>
 30023a8:	8ff1                	and	a5,a5,a2
 30023aa:	8fd5                	or	a5,a5,a3
 30023ac:	50f72223          	sw	a5,1284(a4)
 30023b0:	40f2                	lw	ra,28(sp)
 30023b2:	4462                	lw	s0,24(sp)
 30023b4:	6105                	addi	sp,sp,32
 30023b6:	8082                	ret

030023b8 <APT_SetTimerInterrupt>:
 30023b8:	1101                	addi	sp,sp,-32
 30023ba:	ce06                	sw	ra,28(sp)
 30023bc:	cc22                	sw	s0,24(sp)
 30023be:	1000                	addi	s0,sp,32
 30023c0:	fea42623          	sw	a0,-20(s0)
 30023c4:	fec42783          	lw	a5,-20(s0)
 30023c8:	0547d703          	lhu	a4,84(a5)
 30023cc:	47bd                	li	a5,15
 30023ce:	00e7fa63          	bgeu	a5,a4,30023e2 <APT_SetTimerInterrupt+0x2a>
 30023d2:	15100593          	li	a1,337
 30023d6:	030107b7          	lui	a5,0x3010
 30023da:	11c78513          	addi	a0,a5,284 # 301011c <g_crgIpMatch+0x27c>
 30023de:	2435                	jal	ra,300260a <AssertErrorLog.trans.1>
 30023e0:	a095                	j	3002444 <APT_SetTimerInterrupt+0x8c>
 30023e2:	fec42783          	lw	a5,-20(s0)
 30023e6:	4bb4                	lw	a3,80(a5)
 30023e8:	fec42783          	lw	a5,-20(s0)
 30023ec:	4398                	lw	a4,0(a5)
 30023ee:	87b6                	mv	a5,a3
 30023f0:	8bbd                	andi	a5,a5,15
 30023f2:	0ff7f693          	andi	a3,a5,255
 30023f6:	42472783          	lw	a5,1060(a4)
 30023fa:	8abd                	andi	a3,a3,15
 30023fc:	9bc1                	andi	a5,a5,-16
 30023fe:	8fd5                	or	a5,a5,a3
 3002400:	42f72223          	sw	a5,1060(a4)
 3002404:	fec42783          	lw	a5,-20(s0)
 3002408:	0547d683          	lhu	a3,84(a5)
 300240c:	fec42783          	lw	a5,-20(s0)
 3002410:	4398                	lw	a4,0(a5)
 3002412:	87b6                	mv	a5,a3
 3002414:	8bbd                	andi	a5,a5,15
 3002416:	0ff7f693          	andi	a3,a5,255
 300241a:	42872783          	lw	a5,1064(a4)
 300241e:	8abd                	andi	a3,a3,15
 3002420:	9bc1                	andi	a5,a5,-16
 3002422:	8fd5                	or	a5,a5,a3
 3002424:	42f72423          	sw	a5,1064(a4)
 3002428:	fec42783          	lw	a5,-20(s0)
 300242c:	4398                	lw	a4,0(a5)
 300242e:	fec42783          	lw	a5,-20(s0)
 3002432:	04c7c683          	lbu	a3,76(a5)
 3002436:	41472783          	lw	a5,1044(a4)
 300243a:	8a85                	andi	a3,a3,1
 300243c:	9bf9                	andi	a5,a5,-2
 300243e:	8fd5                	or	a5,a5,a3
 3002440:	40f72a23          	sw	a5,1044(a4)
 3002444:	40f2                	lw	ra,28(sp)
 3002446:	4462                	lw	s0,24(sp)
 3002448:	6105                	addi	sp,sp,32
 300244a:	8082                	ret

0300244c <HAL_APT_PWMInit>:
 300244c:	1101                	addi	sp,sp,-32
 300244e:	ce06                	sw	ra,28(sp)
 3002450:	cc22                	sw	s0,24(sp)
 3002452:	1000                	addi	s0,sp,32
 3002454:	fea42623          	sw	a0,-20(s0)
 3002458:	fec42783          	lw	a5,-20(s0)
 300245c:	eb89                	bnez	a5,300246e <HAL_APT_PWMInit+0x22>
 300245e:	15e00593          	li	a1,350
 3002462:	030107b7          	lui	a5,0x3010
 3002466:	11c78513          	addi	a0,a5,284 # 301011c <g_crgIpMatch+0x27c>
 300246a:	2245                	jal	ra,300260a <AssertErrorLog.trans.1>
 300246c:	a001                	j	300246c <HAL_APT_PWMInit+0x20>
 300246e:	fec42783          	lw	a5,-20(s0)
 3002472:	4398                	lw	a4,0(a5)
 3002474:	14a007b7          	lui	a5,0x14a00
 3002478:	02f70f63          	beq	a4,a5,30024b6 <HAL_APT_PWMInit+0x6a>
 300247c:	fec42783          	lw	a5,-20(s0)
 3002480:	4398                	lw	a4,0(a5)
 3002482:	14a017b7          	lui	a5,0x14a01
 3002486:	02f70863          	beq	a4,a5,30024b6 <HAL_APT_PWMInit+0x6a>
 300248a:	fec42783          	lw	a5,-20(s0)
 300248e:	4398                	lw	a4,0(a5)
 3002490:	14a027b7          	lui	a5,0x14a02
 3002494:	02f70163          	beq	a4,a5,30024b6 <HAL_APT_PWMInit+0x6a>
 3002498:	fec42783          	lw	a5,-20(s0)
 300249c:	4398                	lw	a4,0(a5)
 300249e:	14a037b7          	lui	a5,0x14a03
 30024a2:	00f70a63          	beq	a4,a5,30024b6 <HAL_APT_PWMInit+0x6a>
 30024a6:	15f00593          	li	a1,351
 30024aa:	030107b7          	lui	a5,0x3010
 30024ae:	11c78513          	addi	a0,a5,284 # 301011c <g_crgIpMatch+0x27c>
 30024b2:	2aa1                	jal	ra,300260a <AssertErrorLog.trans.1>
 30024b4:	a001                	j	30024b4 <HAL_APT_PWMInit+0x68>
 30024b6:	fec42783          	lw	a5,-20(s0)
 30024ba:	2bda                	lhu	a4,20(a5)
 30024bc:	6785                	lui	a5,0x1
 30024be:	00f76b63          	bltu	a4,a5,30024d4 <HAL_APT_PWMInit+0x88>
 30024c2:	16000593          	li	a1,352
 30024c6:	030107b7          	lui	a5,0x3010
 30024ca:	11c78513          	addi	a0,a5,284 # 301011c <g_crgIpMatch+0x27c>
 30024ce:	2a35                	jal	ra,300260a <AssertErrorLog.trans.1>
 30024d0:	4785                	li	a5,1
 30024d2:	a23d                	j	3002600 <HAL_APT_PWMInit+0x1b4>
 30024d4:	fec42783          	lw	a5,-20(s0)
 30024d8:	2f9a                	lhu	a4,24(a5)
 30024da:	fec42783          	lw	a5,-20(s0)
 30024de:	2bde                	lhu	a5,20(a5)
 30024e0:	00e7fb63          	bgeu	a5,a4,30024f6 <HAL_APT_PWMInit+0xaa>
 30024e4:	16100593          	li	a1,353
 30024e8:	030107b7          	lui	a5,0x3010
 30024ec:	11c78513          	addi	a0,a5,284 # 301011c <g_crgIpMatch+0x27c>
 30024f0:	2a29                	jal	ra,300260a <AssertErrorLog.trans.1>
 30024f2:	4785                	li	a5,1
 30024f4:	a231                	j	3002600 <HAL_APT_PWMInit+0x1b4>
 30024f6:	fec42783          	lw	a5,-20(s0)
 30024fa:	2fba                	lhu	a4,26(a5)
 30024fc:	fec42783          	lw	a5,-20(s0)
 3002500:	2bfe                	lhu	a5,22(a5)
 3002502:	00f76b63          	bltu	a4,a5,3002518 <HAL_APT_PWMInit+0xcc>
 3002506:	16200593          	li	a1,354
 300250a:	030107b7          	lui	a5,0x3010
 300250e:	11c78513          	addi	a0,a5,284 # 301011c <g_crgIpMatch+0x27c>
 3002512:	28e5                	jal	ra,300260a <AssertErrorLog.trans.1>
 3002514:	4785                	li	a5,1
 3002516:	a0ed                	j	3002600 <HAL_APT_PWMInit+0x1b4>
 3002518:	fec42783          	lw	a5,-20(s0)
 300251c:	2fde                	lhu	a5,28(a5)
 300251e:	eb91                	bnez	a5,3002532 <HAL_APT_PWMInit+0xe6>
 3002520:	16300593          	li	a1,355
 3002524:	030107b7          	lui	a5,0x3010
 3002528:	11c78513          	addi	a0,a5,284 # 301011c <g_crgIpMatch+0x27c>
 300252c:	28f9                	jal	ra,300260a <AssertErrorLog.trans.1>
 300252e:	4785                	li	a5,1
 3002530:	a8c1                	j	3002600 <HAL_APT_PWMInit+0x1b4>
 3002532:	fec42783          	lw	a5,-20(s0)
 3002536:	2fda                	lhu	a4,28(a5)
 3002538:	fec42783          	lw	a5,-20(s0)
 300253c:	2bfe                	lhu	a5,22(a5)
 300253e:	00f76b63          	bltu	a4,a5,3002554 <HAL_APT_PWMInit+0x108>
 3002542:	16400593          	li	a1,356
 3002546:	030107b7          	lui	a5,0x3010
 300254a:	11c78513          	addi	a0,a5,284 # 301011c <g_crgIpMatch+0x27c>
 300254e:	2875                	jal	ra,300260a <AssertErrorLog.trans.1>
 3002550:	4785                	li	a5,1
 3002552:	a07d                	j	3002600 <HAL_APT_PWMInit+0x1b4>
 3002554:	fec42783          	lw	a5,-20(s0)
 3002558:	2ffe                	lhu	a5,30(a5)
 300255a:	eb91                	bnez	a5,300256e <HAL_APT_PWMInit+0x122>
 300255c:	16500593          	li	a1,357
 3002560:	030107b7          	lui	a5,0x3010
 3002564:	11c78513          	addi	a0,a5,284 # 301011c <g_crgIpMatch+0x27c>
 3002568:	204d                	jal	ra,300260a <AssertErrorLog.trans.1>
 300256a:	4785                	li	a5,1
 300256c:	a851                	j	3002600 <HAL_APT_PWMInit+0x1b4>
 300256e:	fec42783          	lw	a5,-20(s0)
 3002572:	2ffa                	lhu	a4,30(a5)
 3002574:	fec42783          	lw	a5,-20(s0)
 3002578:	2bfe                	lhu	a5,22(a5)
 300257a:	00f76b63          	bltu	a4,a5,3002590 <HAL_APT_PWMInit+0x144>
 300257e:	16600593          	li	a1,358
 3002582:	030107b7          	lui	a5,0x3010
 3002586:	11c78513          	addi	a0,a5,284 # 301011c <g_crgIpMatch+0x27c>
 300258a:	2041                	jal	ra,300260a <AssertErrorLog.trans.1>
 300258c:	4785                	li	a5,1
 300258e:	a88d                	j	3002600 <HAL_APT_PWMInit+0x1b4>
 3002590:	fec42783          	lw	a5,-20(s0)
 3002594:	3bfa                	lhu	a4,54(a5)
 3002596:	fec42783          	lw	a5,-20(s0)
 300259a:	2bfe                	lhu	a5,22(a5)
 300259c:	00f76b63          	bltu	a4,a5,30025b2 <HAL_APT_PWMInit+0x166>
 30025a0:	16800593          	li	a1,360
 30025a4:	030107b7          	lui	a5,0x3010
 30025a8:	11c78513          	addi	a0,a5,284 # 301011c <g_crgIpMatch+0x27c>
 30025ac:	28b9                	jal	ra,300260a <AssertErrorLog.trans.1>
 30025ae:	4785                	li	a5,1
 30025b0:	a881                	j	3002600 <HAL_APT_PWMInit+0x1b4>
 30025b2:	fec42783          	lw	a5,-20(s0)
 30025b6:	0427d703          	lhu	a4,66(a5)
 30025ba:	fec42783          	lw	a5,-20(s0)
 30025be:	2bfe                	lhu	a5,22(a5)
 30025c0:	00f76b63          	bltu	a4,a5,30025d6 <HAL_APT_PWMInit+0x18a>
 30025c4:	16a00593          	li	a1,362
 30025c8:	030107b7          	lui	a5,0x3010
 30025cc:	11c78513          	addi	a0,a5,284 # 301011c <g_crgIpMatch+0x27c>
 30025d0:	282d                	jal	ra,300260a <AssertErrorLog.trans.1>
 30025d2:	4785                	li	a5,1
 30025d4:	a035                	j	3002600 <HAL_APT_PWMInit+0x1b4>
 30025d6:	fec42503          	lw	a0,-20(s0)
 30025da:	b06ff0ef          	jal	ra,30018e0 <APT_TimeBaseInit>
 30025de:	fec42503          	lw	a0,-20(s0)
 30025e2:	bb6ff0ef          	jal	ra,3001998 <APT_SetPWMCompareVal>
 30025e6:	fec42503          	lw	a0,-20(s0)
 30025ea:	3a65                	jal	ra,3001fa2 <APT_SetPWMWaveform>
 30025ec:	fec42503          	lw	a0,-20(s0)
 30025f0:	34f9                	jal	ra,30020be <APT_SetADCTrgCompareVal>
 30025f2:	fec42503          	lw	a0,-20(s0)
 30025f6:	315d                	jal	ra,300229c <APT_SetADCTrigger>
 30025f8:	fec42503          	lw	a0,-20(s0)
 30025fc:	3b75                	jal	ra,30023b8 <APT_SetTimerInterrupt>
 30025fe:	4781                	li	a5,0
 3002600:	853e                	mv	a0,a5
 3002602:	40f2                	lw	ra,28(sp)
 3002604:	4462                	lw	s0,24(sp)
 3002606:	6105                	addi	sp,sp,32
 3002608:	8082                	ret

0300260a <AssertErrorLog.trans.1>:
 300260a:	7340006f          	j	3002d3e <AssertErrorLog>

0300260e <HAL_APT_StartModule>:
 300260e:	1101                	addi	sp,sp,-32
 3002610:	ce22                	sw	s0,28(sp)
 3002612:	1000                	addi	s0,sp,32
 3002614:	fea42623          	sw	a0,-20(s0)
 3002618:	10100737          	lui	a4,0x10100
 300261c:	67a1                	lui	a5,0x8
 300261e:	97ba                	add	a5,a5,a4
 3002620:	4398                	lw	a4,0(a5)
 3002622:	101006b7          	lui	a3,0x10100
 3002626:	fec42783          	lw	a5,-20(s0)
 300262a:	8f5d                	or	a4,a4,a5
 300262c:	67a1                	lui	a5,0x8
 300262e:	97b6                	add	a5,a5,a3
 3002630:	c398                	sw	a4,0(a5)
 3002632:	0001                	nop
 3002634:	4472                	lw	s0,28(sp)
 3002636:	6105                	addi	sp,sp,32
 3002638:	8082                	ret

0300263a <HAL_APT_StopModule>:
 300263a:	1101                	addi	sp,sp,-32
 300263c:	ce22                	sw	s0,28(sp)
 300263e:	1000                	addi	s0,sp,32
 3002640:	fea42623          	sw	a0,-20(s0)
 3002644:	10100737          	lui	a4,0x10100
 3002648:	67a1                	lui	a5,0x8
 300264a:	97ba                	add	a5,a5,a4
 300264c:	4398                	lw	a4,0(a5)
 300264e:	fec42783          	lw	a5,-20(s0)
 3002652:	fff7c793          	not	a5,a5
 3002656:	101006b7          	lui	a3,0x10100
 300265a:	8f7d                	and	a4,a4,a5
 300265c:	67a1                	lui	a5,0x8
 300265e:	97b6                	add	a5,a5,a3
 3002660:	c398                	sw	a4,0(a5)
 3002662:	0001                	nop
 3002664:	4472                	lw	s0,28(sp)
 3002666:	6105                	addi	sp,sp,32
 3002668:	8082                	ret

0300266a <HAL_APT_SetPWMDutyByNumber>:
 300266a:	7179                	addi	sp,sp,-48
 300266c:	d606                	sw	ra,44(sp)
 300266e:	d422                	sw	s0,40(sp)
 3002670:	1800                	addi	s0,sp,48
 3002672:	fca42e23          	sw	a0,-36(s0)
 3002676:	fcb42c23          	sw	a1,-40(s0)
 300267a:	fdc42783          	lw	a5,-36(s0)
 300267e:	eb89                	bnez	a5,3002690 <HAL_APT_SetPWMDutyByNumber+0x26>
 3002680:	42d00593          	li	a1,1069
 3002684:	030107b7          	lui	a5,0x3010
 3002688:	11c78513          	addi	a0,a5,284 # 301011c <g_crgIpMatch+0x27c>
 300268c:	2d4d                	jal	ra,3002d3e <AssertErrorLog>
 300268e:	a001                	j	300268e <HAL_APT_SetPWMDutyByNumber+0x24>
 3002690:	fdc42783          	lw	a5,-36(s0)
 3002694:	4398                	lw	a4,0(a5)
 3002696:	14a007b7          	lui	a5,0x14a00
 300269a:	02f70f63          	beq	a4,a5,30026d8 <HAL_APT_SetPWMDutyByNumber+0x6e>
 300269e:	fdc42783          	lw	a5,-36(s0)
 30026a2:	4398                	lw	a4,0(a5)
 30026a4:	14a017b7          	lui	a5,0x14a01
 30026a8:	02f70863          	beq	a4,a5,30026d8 <HAL_APT_SetPWMDutyByNumber+0x6e>
 30026ac:	fdc42783          	lw	a5,-36(s0)
 30026b0:	4398                	lw	a4,0(a5)
 30026b2:	14a027b7          	lui	a5,0x14a02
 30026b6:	02f70163          	beq	a4,a5,30026d8 <HAL_APT_SetPWMDutyByNumber+0x6e>
 30026ba:	fdc42783          	lw	a5,-36(s0)
 30026be:	4398                	lw	a4,0(a5)
 30026c0:	14a037b7          	lui	a5,0x14a03
 30026c4:	00f70a63          	beq	a4,a5,30026d8 <HAL_APT_SetPWMDutyByNumber+0x6e>
 30026c8:	42e00593          	li	a1,1070
 30026cc:	030107b7          	lui	a5,0x3010
 30026d0:	11c78513          	addi	a0,a5,284 # 301011c <g_crgIpMatch+0x27c>
 30026d4:	25ad                	jal	ra,3002d3e <AssertErrorLog>
 30026d6:	a001                	j	30026d6 <HAL_APT_SetPWMDutyByNumber+0x6c>
 30026d8:	fd842703          	lw	a4,-40(s0)
 30026dc:	06300793          	li	a5,99
 30026e0:	00e7fb63          	bgeu	a5,a4,30026f6 <HAL_APT_SetPWMDutyByNumber+0x8c>
 30026e4:	42f00593          	li	a1,1071
 30026e8:	030107b7          	lui	a5,0x3010
 30026ec:	11c78513          	addi	a0,a5,284 # 301011c <g_crgIpMatch+0x27c>
 30026f0:	25b9                	jal	ra,3002d3e <AssertErrorLog>
 30026f2:	4785                	li	a5,1
 30026f4:	aa01                	j	3002804 <HAL_APT_SetPWMDutyByNumber+0x19a>
 30026f6:	fd842783          	lw	a5,-40(s0)
 30026fa:	eb91                	bnez	a5,300270e <HAL_APT_SetPWMDutyByNumber+0xa4>
 30026fc:	43000593          	li	a1,1072
 3002700:	030107b7          	lui	a5,0x3010
 3002704:	11c78513          	addi	a0,a5,284 # 301011c <g_crgIpMatch+0x27c>
 3002708:	2d1d                	jal	ra,3002d3e <AssertErrorLog>
 300270a:	4785                	li	a5,1
 300270c:	a8e5                	j	3002804 <HAL_APT_SetPWMDutyByNumber+0x19a>
 300270e:	fdc42783          	lw	a5,-36(s0)
 3002712:	4b98                	lw	a4,16(a5)
 3002714:	4789                	li	a5,2
 3002716:	04f71263          	bne	a4,a5,300275a <HAL_APT_SetPWMDutyByNumber+0xf0>
 300271a:	fdc42783          	lw	a5,-36(s0)
 300271e:	2bfe                	lhu	a5,22(a5)
 3002720:	873e                	mv	a4,a5
 3002722:	fdc42783          	lw	a5,-36(s0)
 3002726:	2bfe                	lhu	a5,22(a5)
 3002728:	d017f753          	fcvt.s.wu	fa4,a5
 300272c:	030107b7          	lui	a5,0x3010
 3002730:	1487a787          	flw	fa5,328(a5) # 3010148 <g_crgIpMatch+0x2a8>
 3002734:	18f77753          	fdiv.s	fa4,fa4,fa5
 3002738:	fd842783          	lw	a5,-40(s0)
 300273c:	d017f7d3          	fcvt.s.wu	fa5,a5
 3002740:	10f777d3          	fmul.s	fa5,fa4,fa5
 3002744:	c00797d3          	fcvt.w.s	a5,fa5,rtz
 3002748:	40f707b3          	sub	a5,a4,a5
 300274c:	fef42623          	sw	a5,-20(s0)
 3002750:	fec42783          	lw	a5,-20(s0)
 3002754:	fef42423          	sw	a5,-24(s0)
 3002758:	a83d                	j	3002796 <HAL_APT_SetPWMDutyByNumber+0x12c>
 300275a:	4785                	li	a5,1
 300275c:	fef42623          	sw	a5,-20(s0)
 3002760:	fdc42783          	lw	a5,-36(s0)
 3002764:	2bfe                	lhu	a5,22(a5)
 3002766:	d017f753          	fcvt.s.wu	fa4,a5
 300276a:	030107b7          	lui	a5,0x3010
 300276e:	1487a787          	flw	fa5,328(a5) # 3010148 <g_crgIpMatch+0x2a8>
 3002772:	18f77753          	fdiv.s	fa4,fa4,fa5
 3002776:	fd842783          	lw	a5,-40(s0)
 300277a:	d017f7d3          	fcvt.s.wu	fa5,a5
 300277e:	10f77753          	fmul.s	fa4,fa4,fa5
 3002782:	fec42783          	lw	a5,-20(s0)
 3002786:	d017f7d3          	fcvt.s.wu	fa5,a5
 300278a:	00f777d3          	fadd.s	fa5,fa4,fa5
 300278e:	c00797d3          	fcvt.w.s	a5,fa5,rtz
 3002792:	fef42423          	sw	a5,-24(s0)
 3002796:	fdc42783          	lw	a5,-36(s0)
 300279a:	439c                	lw	a5,0(a5)
 300279c:	5f9c                	lw	a5,56(a5)
 300279e:	fef42223          	sw	a5,-28(s0)
 30027a2:	fec42783          	lw	a5,-20(s0)
 30027a6:	01079693          	slli	a3,a5,0x10
 30027aa:	82c1                	srli	a3,a3,0x10
 30027ac:	fe442783          	lw	a5,-28(s0)
 30027b0:	6741                	lui	a4,0x10
 30027b2:	177d                	addi	a4,a4,-1 # ffff <RAM_SIZE+0xafff>
 30027b4:	8f75                	and	a4,a4,a3
 30027b6:	76c1                	lui	a3,0xffff0
 30027b8:	8ff5                	and	a5,a5,a3
 30027ba:	8fd9                	or	a5,a5,a4
 30027bc:	fef42223          	sw	a5,-28(s0)
 30027c0:	fdc42783          	lw	a5,-36(s0)
 30027c4:	439c                	lw	a5,0(a5)
 30027c6:	fe442703          	lw	a4,-28(s0)
 30027ca:	df98                	sw	a4,56(a5)
 30027cc:	fdc42783          	lw	a5,-36(s0)
 30027d0:	439c                	lw	a5,0(a5)
 30027d2:	5fdc                	lw	a5,60(a5)
 30027d4:	fef42023          	sw	a5,-32(s0)
 30027d8:	fe842783          	lw	a5,-24(s0)
 30027dc:	01079693          	slli	a3,a5,0x10
 30027e0:	82c1                	srli	a3,a3,0x10
 30027e2:	fe042783          	lw	a5,-32(s0)
 30027e6:	6741                	lui	a4,0x10
 30027e8:	177d                	addi	a4,a4,-1 # ffff <RAM_SIZE+0xafff>
 30027ea:	8f75                	and	a4,a4,a3
 30027ec:	76c1                	lui	a3,0xffff0
 30027ee:	8ff5                	and	a5,a5,a3
 30027f0:	8fd9                	or	a5,a5,a4
 30027f2:	fef42023          	sw	a5,-32(s0)
 30027f6:	fdc42783          	lw	a5,-36(s0)
 30027fa:	439c                	lw	a5,0(a5)
 30027fc:	fe042703          	lw	a4,-32(s0)
 3002800:	dfd8                	sw	a4,60(a5)
 3002802:	4781                	li	a5,0
 3002804:	853e                	mv	a0,a5
 3002806:	50b2                	lw	ra,44(sp)
 3002808:	5422                	lw	s0,40(sp)
 300280a:	6145                	addi	sp,sp,48
 300280c:	8082                	ret

0300280e <APT_ConfigAction>:
 300280e:	1101                	addi	sp,sp,-32
 3002810:	ce22                	sw	s0,28(sp)
 3002812:	1000                	addi	s0,sp,32
 3002814:	fea42623          	sw	a0,-20(s0)
 3002818:	feb42423          	sw	a1,-24(s0)
 300281c:	fe842783          	lw	a5,-24(s0)
 3002820:	43d8                	lw	a4,4(a5)
 3002822:	4785                	li	a5,1
 3002824:	04f71b63          	bne	a4,a5,300287a <APT_ConfigAction+0x6c>
 3002828:	fec42783          	lw	a5,-20(s0)
 300282c:	439c                	lw	a5,0(a5)
 300282e:	1047a703          	lw	a4,260(a5)
 3002832:	fe842783          	lw	a5,-24(s0)
 3002836:	479c                	lw	a5,8(a5)
 3002838:	468d                	li	a3,3
 300283a:	00f697b3          	sll	a5,a3,a5
 300283e:	fff7c793          	not	a5,a5
 3002842:	86be                	mv	a3,a5
 3002844:	fec42783          	lw	a5,-20(s0)
 3002848:	439c                	lw	a5,0(a5)
 300284a:	8f75                	and	a4,a4,a3
 300284c:	10e7a223          	sw	a4,260(a5)
 3002850:	fec42783          	lw	a5,-20(s0)
 3002854:	439c                	lw	a5,0(a5)
 3002856:	1047a683          	lw	a3,260(a5)
 300285a:	fe842783          	lw	a5,-24(s0)
 300285e:	47d8                	lw	a4,12(a5)
 3002860:	fe842783          	lw	a5,-24(s0)
 3002864:	479c                	lw	a5,8(a5)
 3002866:	00f71733          	sll	a4,a4,a5
 300286a:	fec42783          	lw	a5,-20(s0)
 300286e:	439c                	lw	a5,0(a5)
 3002870:	8f55                	or	a4,a4,a3
 3002872:	10e7a223          	sw	a4,260(a5)
 3002876:	4781                	li	a5,0
 3002878:	a8b9                	j	30028d6 <APT_ConfigAction+0xc8>
 300287a:	fe842783          	lw	a5,-24(s0)
 300287e:	43dc                	lw	a5,4(a5)
 3002880:	ebb1                	bnez	a5,30028d4 <APT_ConfigAction+0xc6>
 3002882:	fec42783          	lw	a5,-20(s0)
 3002886:	439c                	lw	a5,0(a5)
 3002888:	1007a703          	lw	a4,256(a5)
 300288c:	fe842783          	lw	a5,-24(s0)
 3002890:	479c                	lw	a5,8(a5)
 3002892:	468d                	li	a3,3
 3002894:	00f697b3          	sll	a5,a3,a5
 3002898:	fff7c793          	not	a5,a5
 300289c:	86be                	mv	a3,a5
 300289e:	fec42783          	lw	a5,-20(s0)
 30028a2:	439c                	lw	a5,0(a5)
 30028a4:	8f75                	and	a4,a4,a3
 30028a6:	10e7a023          	sw	a4,256(a5)
 30028aa:	fec42783          	lw	a5,-20(s0)
 30028ae:	439c                	lw	a5,0(a5)
 30028b0:	1007a683          	lw	a3,256(a5)
 30028b4:	fe842783          	lw	a5,-24(s0)
 30028b8:	47d8                	lw	a4,12(a5)
 30028ba:	fe842783          	lw	a5,-24(s0)
 30028be:	479c                	lw	a5,8(a5)
 30028c0:	00f71733          	sll	a4,a4,a5
 30028c4:	fec42783          	lw	a5,-20(s0)
 30028c8:	439c                	lw	a5,0(a5)
 30028ca:	8f55                	or	a4,a4,a3
 30028cc:	10e7a023          	sw	a4,256(a5)
 30028d0:	4781                	li	a5,0
 30028d2:	a011                	j	30028d6 <APT_ConfigAction+0xc8>
 30028d4:	4785                	li	a5,1
 30028d6:	853e                	mv	a0,a5
 30028d8:	4472                	lw	s0,28(sp)
 30028da:	6105                	addi	sp,sp,32
 30028dc:	8082                	ret

030028de <APT_ConfigRefA>:
 30028de:	1101                	addi	sp,sp,-32
 30028e0:	ce06                	sw	ra,28(sp)
 30028e2:	cc22                	sw	s0,24(sp)
 30028e4:	1000                	addi	s0,sp,32
 30028e6:	fea42623          	sw	a0,-20(s0)
 30028ea:	feb42423          	sw	a1,-24(s0)
 30028ee:	fec42783          	lw	a5,-20(s0)
 30028f2:	eb89                	bnez	a5,3002904 <APT_ConfigRefA+0x26>
 30028f4:	51c00593          	li	a1,1308
 30028f8:	030107b7          	lui	a5,0x3010
 30028fc:	11c78513          	addi	a0,a5,284 # 301011c <g_crgIpMatch+0x27c>
 3002900:	293d                	jal	ra,3002d3e <AssertErrorLog>
 3002902:	a001                	j	3002902 <APT_ConfigRefA+0x24>
 3002904:	fec42783          	lw	a5,-20(s0)
 3002908:	439c                	lw	a5,0(a5)
 300290a:	eb89                	bnez	a5,300291c <APT_ConfigRefA+0x3e>
 300290c:	51d00593          	li	a1,1309
 3002910:	030107b7          	lui	a5,0x3010
 3002914:	11c78513          	addi	a0,a5,284 # 301011c <g_crgIpMatch+0x27c>
 3002918:	211d                	jal	ra,3002d3e <AssertErrorLog>
 300291a:	a001                	j	300291a <APT_ConfigRefA+0x3c>
 300291c:	fec42783          	lw	a5,-20(s0)
 3002920:	4398                	lw	a4,0(a5)
 3002922:	14a007b7          	lui	a5,0x14a00
 3002926:	02f70f63          	beq	a4,a5,3002964 <APT_ConfigRefA+0x86>
 300292a:	fec42783          	lw	a5,-20(s0)
 300292e:	4398                	lw	a4,0(a5)
 3002930:	14a017b7          	lui	a5,0x14a01
 3002934:	02f70863          	beq	a4,a5,3002964 <APT_ConfigRefA+0x86>
 3002938:	fec42783          	lw	a5,-20(s0)
 300293c:	4398                	lw	a4,0(a5)
 300293e:	14a027b7          	lui	a5,0x14a02
 3002942:	02f70163          	beq	a4,a5,3002964 <APT_ConfigRefA+0x86>
 3002946:	fec42783          	lw	a5,-20(s0)
 300294a:	4398                	lw	a4,0(a5)
 300294c:	14a037b7          	lui	a5,0x14a03
 3002950:	00f70a63          	beq	a4,a5,3002964 <APT_ConfigRefA+0x86>
 3002954:	51e00593          	li	a1,1310
 3002958:	030107b7          	lui	a5,0x3010
 300295c:	11c78513          	addi	a0,a5,284 # 301011c <g_crgIpMatch+0x27c>
 3002960:	2ef9                	jal	ra,3002d3e <AssertErrorLog>
 3002962:	a001                	j	3002962 <APT_ConfigRefA+0x84>
 3002964:	fe842783          	lw	a5,-24(s0)
 3002968:	43d8                	lw	a4,4(a5)
 300296a:	4785                	li	a5,1
 300296c:	00e7fb63          	bgeu	a5,a4,3002982 <APT_ConfigRefA+0xa4>
 3002970:	52100593          	li	a1,1313
 3002974:	030107b7          	lui	a5,0x3010
 3002978:	11c78513          	addi	a0,a5,284 # 301011c <g_crgIpMatch+0x27c>
 300297c:	26c9                	jal	ra,3002d3e <AssertErrorLog>
 300297e:	4785                	li	a5,1
 3002980:	a0b5                	j	30029ec <APT_ConfigRefA+0x10e>
 3002982:	fe842783          	lw	a5,-24(s0)
 3002986:	4798                	lw	a4,8(a5)
 3002988:	47e9                	li	a5,26
 300298a:	00e7fb63          	bgeu	a5,a4,30029a0 <APT_ConfigRefA+0xc2>
 300298e:	52400593          	li	a1,1316
 3002992:	030107b7          	lui	a5,0x3010
 3002996:	11c78513          	addi	a0,a5,284 # 301011c <g_crgIpMatch+0x27c>
 300299a:	2655                	jal	ra,3002d3e <AssertErrorLog>
 300299c:	4785                	li	a5,1
 300299e:	a0b9                	j	30029ec <APT_ConfigRefA+0x10e>
 30029a0:	fe842783          	lw	a5,-24(s0)
 30029a4:	47d8                	lw	a4,12(a5)
 30029a6:	478d                	li	a5,3
 30029a8:	00e7fb63          	bgeu	a5,a4,30029be <APT_ConfigRefA+0xe0>
 30029ac:	52600593          	li	a1,1318
 30029b0:	030107b7          	lui	a5,0x3010
 30029b4:	11c78513          	addi	a0,a5,284 # 301011c <g_crgIpMatch+0x27c>
 30029b8:	2659                	jal	ra,3002d3e <AssertErrorLog>
 30029ba:	4785                	li	a5,1
 30029bc:	a805                	j	30029ec <APT_ConfigRefA+0x10e>
 30029be:	fe842783          	lw	a5,-24(s0)
 30029c2:	4394                	lw	a3,0(a5)
 30029c4:	fec42783          	lw	a5,-20(s0)
 30029c8:	4398                	lw	a4,0(a5)
 30029ca:	01069613          	slli	a2,a3,0x10
 30029ce:	8241                	srli	a2,a2,0x10
 30029d0:	5b1c                	lw	a5,48(a4)
 30029d2:	66c1                	lui	a3,0x10
 30029d4:	16fd                	addi	a3,a3,-1 # ffff <RAM_SIZE+0xafff>
 30029d6:	8ef1                	and	a3,a3,a2
 30029d8:	7641                	lui	a2,0xffff0
 30029da:	8ff1                	and	a5,a5,a2
 30029dc:	8fd5                	or	a5,a5,a3
 30029de:	db1c                	sw	a5,48(a4)
 30029e0:	fe842583          	lw	a1,-24(s0)
 30029e4:	fec42503          	lw	a0,-20(s0)
 30029e8:	351d                	jal	ra,300280e <APT_ConfigAction>
 30029ea:	87aa                	mv	a5,a0
 30029ec:	853e                	mv	a0,a5
 30029ee:	40f2                	lw	ra,28(sp)
 30029f0:	4462                	lw	s0,24(sp)
 30029f2:	6105                	addi	sp,sp,32
 30029f4:	8082                	ret

030029f6 <APT_ConfigRefB>:
 30029f6:	1101                	addi	sp,sp,-32
 30029f8:	ce06                	sw	ra,28(sp)
 30029fa:	cc22                	sw	s0,24(sp)
 30029fc:	1000                	addi	s0,sp,32
 30029fe:	fea42623          	sw	a0,-20(s0)
 3002a02:	feb42423          	sw	a1,-24(s0)
 3002a06:	fec42783          	lw	a5,-20(s0)
 3002a0a:	eb89                	bnez	a5,3002a1c <APT_ConfigRefB+0x26>
 3002a0c:	53500593          	li	a1,1333
 3002a10:	030107b7          	lui	a5,0x3010
 3002a14:	11c78513          	addi	a0,a5,284 # 301011c <g_crgIpMatch+0x27c>
 3002a18:	261d                	jal	ra,3002d3e <AssertErrorLog>
 3002a1a:	a001                	j	3002a1a <APT_ConfigRefB+0x24>
 3002a1c:	fec42783          	lw	a5,-20(s0)
 3002a20:	439c                	lw	a5,0(a5)
 3002a22:	eb89                	bnez	a5,3002a34 <APT_ConfigRefB+0x3e>
 3002a24:	53600593          	li	a1,1334
 3002a28:	030107b7          	lui	a5,0x3010
 3002a2c:	11c78513          	addi	a0,a5,284 # 301011c <g_crgIpMatch+0x27c>
 3002a30:	2639                	jal	ra,3002d3e <AssertErrorLog>
 3002a32:	a001                	j	3002a32 <APT_ConfigRefB+0x3c>
 3002a34:	fec42783          	lw	a5,-20(s0)
 3002a38:	4398                	lw	a4,0(a5)
 3002a3a:	14a007b7          	lui	a5,0x14a00
 3002a3e:	02f70f63          	beq	a4,a5,3002a7c <APT_ConfigRefB+0x86>
 3002a42:	fec42783          	lw	a5,-20(s0)
 3002a46:	4398                	lw	a4,0(a5)
 3002a48:	14a017b7          	lui	a5,0x14a01
 3002a4c:	02f70863          	beq	a4,a5,3002a7c <APT_ConfigRefB+0x86>
 3002a50:	fec42783          	lw	a5,-20(s0)
 3002a54:	4398                	lw	a4,0(a5)
 3002a56:	14a027b7          	lui	a5,0x14a02
 3002a5a:	02f70163          	beq	a4,a5,3002a7c <APT_ConfigRefB+0x86>
 3002a5e:	fec42783          	lw	a5,-20(s0)
 3002a62:	4398                	lw	a4,0(a5)
 3002a64:	14a037b7          	lui	a5,0x14a03
 3002a68:	00f70a63          	beq	a4,a5,3002a7c <APT_ConfigRefB+0x86>
 3002a6c:	53700593          	li	a1,1335
 3002a70:	030107b7          	lui	a5,0x3010
 3002a74:	11c78513          	addi	a0,a5,284 # 301011c <g_crgIpMatch+0x27c>
 3002a78:	24d9                	jal	ra,3002d3e <AssertErrorLog>
 3002a7a:	a001                	j	3002a7a <APT_ConfigRefB+0x84>
 3002a7c:	fe842783          	lw	a5,-24(s0)
 3002a80:	43d8                	lw	a4,4(a5)
 3002a82:	4785                	li	a5,1
 3002a84:	00e7fb63          	bgeu	a5,a4,3002a9a <APT_ConfigRefB+0xa4>
 3002a88:	53a00593          	li	a1,1338
 3002a8c:	030107b7          	lui	a5,0x3010
 3002a90:	11c78513          	addi	a0,a5,284 # 301011c <g_crgIpMatch+0x27c>
 3002a94:	246d                	jal	ra,3002d3e <AssertErrorLog>
 3002a96:	4785                	li	a5,1
 3002a98:	a0b5                	j	3002b04 <APT_ConfigRefB+0x10e>
 3002a9a:	fe842783          	lw	a5,-24(s0)
 3002a9e:	4798                	lw	a4,8(a5)
 3002aa0:	47e9                	li	a5,26
 3002aa2:	00e7fb63          	bgeu	a5,a4,3002ab8 <APT_ConfigRefB+0xc2>
 3002aa6:	53d00593          	li	a1,1341
 3002aaa:	030107b7          	lui	a5,0x3010
 3002aae:	11c78513          	addi	a0,a5,284 # 301011c <g_crgIpMatch+0x27c>
 3002ab2:	2471                	jal	ra,3002d3e <AssertErrorLog>
 3002ab4:	4785                	li	a5,1
 3002ab6:	a0b9                	j	3002b04 <APT_ConfigRefB+0x10e>
 3002ab8:	fe842783          	lw	a5,-24(s0)
 3002abc:	47d8                	lw	a4,12(a5)
 3002abe:	478d                	li	a5,3
 3002ac0:	00e7fb63          	bgeu	a5,a4,3002ad6 <APT_ConfigRefB+0xe0>
 3002ac4:	53f00593          	li	a1,1343
 3002ac8:	030107b7          	lui	a5,0x3010
 3002acc:	11c78513          	addi	a0,a5,284 # 301011c <g_crgIpMatch+0x27c>
 3002ad0:	24bd                	jal	ra,3002d3e <AssertErrorLog>
 3002ad2:	4785                	li	a5,1
 3002ad4:	a805                	j	3002b04 <APT_ConfigRefB+0x10e>
 3002ad6:	fe842783          	lw	a5,-24(s0)
 3002ada:	4394                	lw	a3,0(a5)
 3002adc:	fec42783          	lw	a5,-20(s0)
 3002ae0:	4398                	lw	a4,0(a5)
 3002ae2:	01069613          	slli	a2,a3,0x10
 3002ae6:	8241                	srli	a2,a2,0x10
 3002ae8:	5b5c                	lw	a5,52(a4)
 3002aea:	66c1                	lui	a3,0x10
 3002aec:	16fd                	addi	a3,a3,-1 # ffff <RAM_SIZE+0xafff>
 3002aee:	8ef1                	and	a3,a3,a2
 3002af0:	7641                	lui	a2,0xffff0
 3002af2:	8ff1                	and	a5,a5,a2
 3002af4:	8fd5                	or	a5,a5,a3
 3002af6:	db5c                	sw	a5,52(a4)
 3002af8:	fe842583          	lw	a1,-24(s0)
 3002afc:	fec42503          	lw	a0,-20(s0)
 3002b00:	3339                	jal	ra,300280e <APT_ConfigAction>
 3002b02:	87aa                	mv	a5,a0
 3002b04:	853e                	mv	a0,a5
 3002b06:	40f2                	lw	ra,28(sp)
 3002b08:	4462                	lw	s0,24(sp)
 3002b0a:	6105                	addi	sp,sp,32
 3002b0c:	8082                	ret

03002b0e <APT_ConfigRefC>:
 3002b0e:	1101                	addi	sp,sp,-32
 3002b10:	ce06                	sw	ra,28(sp)
 3002b12:	cc22                	sw	s0,24(sp)
 3002b14:	1000                	addi	s0,sp,32
 3002b16:	fea42623          	sw	a0,-20(s0)
 3002b1a:	feb42423          	sw	a1,-24(s0)
 3002b1e:	fec42783          	lw	a5,-20(s0)
 3002b22:	eb89                	bnez	a5,3002b34 <APT_ConfigRefC+0x26>
 3002b24:	54e00593          	li	a1,1358
 3002b28:	030107b7          	lui	a5,0x3010
 3002b2c:	11c78513          	addi	a0,a5,284 # 301011c <g_crgIpMatch+0x27c>
 3002b30:	2439                	jal	ra,3002d3e <AssertErrorLog>
 3002b32:	a001                	j	3002b32 <APT_ConfigRefC+0x24>
 3002b34:	fec42783          	lw	a5,-20(s0)
 3002b38:	439c                	lw	a5,0(a5)
 3002b3a:	eb89                	bnez	a5,3002b4c <APT_ConfigRefC+0x3e>
 3002b3c:	54f00593          	li	a1,1359
 3002b40:	030107b7          	lui	a5,0x3010
 3002b44:	11c78513          	addi	a0,a5,284 # 301011c <g_crgIpMatch+0x27c>
 3002b48:	2add                	jal	ra,3002d3e <AssertErrorLog>
 3002b4a:	a001                	j	3002b4a <APT_ConfigRefC+0x3c>
 3002b4c:	fec42783          	lw	a5,-20(s0)
 3002b50:	4398                	lw	a4,0(a5)
 3002b52:	14a007b7          	lui	a5,0x14a00
 3002b56:	02f70f63          	beq	a4,a5,3002b94 <APT_ConfigRefC+0x86>
 3002b5a:	fec42783          	lw	a5,-20(s0)
 3002b5e:	4398                	lw	a4,0(a5)
 3002b60:	14a017b7          	lui	a5,0x14a01
 3002b64:	02f70863          	beq	a4,a5,3002b94 <APT_ConfigRefC+0x86>
 3002b68:	fec42783          	lw	a5,-20(s0)
 3002b6c:	4398                	lw	a4,0(a5)
 3002b6e:	14a027b7          	lui	a5,0x14a02
 3002b72:	02f70163          	beq	a4,a5,3002b94 <APT_ConfigRefC+0x86>
 3002b76:	fec42783          	lw	a5,-20(s0)
 3002b7a:	4398                	lw	a4,0(a5)
 3002b7c:	14a037b7          	lui	a5,0x14a03
 3002b80:	00f70a63          	beq	a4,a5,3002b94 <APT_ConfigRefC+0x86>
 3002b84:	55000593          	li	a1,1360
 3002b88:	030107b7          	lui	a5,0x3010
 3002b8c:	11c78513          	addi	a0,a5,284 # 301011c <g_crgIpMatch+0x27c>
 3002b90:	227d                	jal	ra,3002d3e <AssertErrorLog>
 3002b92:	a001                	j	3002b92 <APT_ConfigRefC+0x84>
 3002b94:	fe842783          	lw	a5,-24(s0)
 3002b98:	43d8                	lw	a4,4(a5)
 3002b9a:	4785                	li	a5,1
 3002b9c:	00e7fb63          	bgeu	a5,a4,3002bb2 <APT_ConfigRefC+0xa4>
 3002ba0:	55300593          	li	a1,1363
 3002ba4:	030107b7          	lui	a5,0x3010
 3002ba8:	11c78513          	addi	a0,a5,284 # 301011c <g_crgIpMatch+0x27c>
 3002bac:	2a49                	jal	ra,3002d3e <AssertErrorLog>
 3002bae:	4785                	li	a5,1
 3002bb0:	a0b5                	j	3002c1c <APT_ConfigRefC+0x10e>
 3002bb2:	fe842783          	lw	a5,-24(s0)
 3002bb6:	4798                	lw	a4,8(a5)
 3002bb8:	47e9                	li	a5,26
 3002bba:	00e7fb63          	bgeu	a5,a4,3002bd0 <APT_ConfigRefC+0xc2>
 3002bbe:	55600593          	li	a1,1366
 3002bc2:	030107b7          	lui	a5,0x3010
 3002bc6:	11c78513          	addi	a0,a5,284 # 301011c <g_crgIpMatch+0x27c>
 3002bca:	2a95                	jal	ra,3002d3e <AssertErrorLog>
 3002bcc:	4785                	li	a5,1
 3002bce:	a0b9                	j	3002c1c <APT_ConfigRefC+0x10e>
 3002bd0:	fe842783          	lw	a5,-24(s0)
 3002bd4:	47d8                	lw	a4,12(a5)
 3002bd6:	478d                	li	a5,3
 3002bd8:	00e7fb63          	bgeu	a5,a4,3002bee <APT_ConfigRefC+0xe0>
 3002bdc:	55800593          	li	a1,1368
 3002be0:	030107b7          	lui	a5,0x3010
 3002be4:	11c78513          	addi	a0,a5,284 # 301011c <g_crgIpMatch+0x27c>
 3002be8:	2a99                	jal	ra,3002d3e <AssertErrorLog>
 3002bea:	4785                	li	a5,1
 3002bec:	a805                	j	3002c1c <APT_ConfigRefC+0x10e>
 3002bee:	fe842783          	lw	a5,-24(s0)
 3002bf2:	4394                	lw	a3,0(a5)
 3002bf4:	fec42783          	lw	a5,-20(s0)
 3002bf8:	4398                	lw	a4,0(a5)
 3002bfa:	01069613          	slli	a2,a3,0x10
 3002bfe:	8241                	srli	a2,a2,0x10
 3002c00:	5f1c                	lw	a5,56(a4)
 3002c02:	66c1                	lui	a3,0x10
 3002c04:	16fd                	addi	a3,a3,-1 # ffff <RAM_SIZE+0xafff>
 3002c06:	8ef1                	and	a3,a3,a2
 3002c08:	7641                	lui	a2,0xffff0
 3002c0a:	8ff1                	and	a5,a5,a2
 3002c0c:	8fd5                	or	a5,a5,a3
 3002c0e:	df1c                	sw	a5,56(a4)
 3002c10:	fe842583          	lw	a1,-24(s0)
 3002c14:	fec42503          	lw	a0,-20(s0)
 3002c18:	3edd                	jal	ra,300280e <APT_ConfigAction>
 3002c1a:	87aa                	mv	a5,a0
 3002c1c:	853e                	mv	a0,a5
 3002c1e:	40f2                	lw	ra,28(sp)
 3002c20:	4462                	lw	s0,24(sp)
 3002c22:	6105                	addi	sp,sp,32
 3002c24:	8082                	ret

03002c26 <APT_ConfigRefD>:
 3002c26:	1101                	addi	sp,sp,-32
 3002c28:	ce06                	sw	ra,28(sp)
 3002c2a:	cc22                	sw	s0,24(sp)
 3002c2c:	1000                	addi	s0,sp,32
 3002c2e:	fea42623          	sw	a0,-20(s0)
 3002c32:	feb42423          	sw	a1,-24(s0)
 3002c36:	fec42783          	lw	a5,-20(s0)
 3002c3a:	eb89                	bnez	a5,3002c4c <APT_ConfigRefD+0x26>
 3002c3c:	56700593          	li	a1,1383
 3002c40:	030107b7          	lui	a5,0x3010
 3002c44:	11c78513          	addi	a0,a5,284 # 301011c <g_crgIpMatch+0x27c>
 3002c48:	28dd                	jal	ra,3002d3e <AssertErrorLog>
 3002c4a:	a001                	j	3002c4a <APT_ConfigRefD+0x24>
 3002c4c:	fec42783          	lw	a5,-20(s0)
 3002c50:	439c                	lw	a5,0(a5)
 3002c52:	eb89                	bnez	a5,3002c64 <APT_ConfigRefD+0x3e>
 3002c54:	56800593          	li	a1,1384
 3002c58:	030107b7          	lui	a5,0x3010
 3002c5c:	11c78513          	addi	a0,a5,284 # 301011c <g_crgIpMatch+0x27c>
 3002c60:	28f9                	jal	ra,3002d3e <AssertErrorLog>
 3002c62:	a001                	j	3002c62 <APT_ConfigRefD+0x3c>
 3002c64:	fec42783          	lw	a5,-20(s0)
 3002c68:	4398                	lw	a4,0(a5)
 3002c6a:	14a007b7          	lui	a5,0x14a00
 3002c6e:	02f70f63          	beq	a4,a5,3002cac <APT_ConfigRefD+0x86>
 3002c72:	fec42783          	lw	a5,-20(s0)
 3002c76:	4398                	lw	a4,0(a5)
 3002c78:	14a017b7          	lui	a5,0x14a01
 3002c7c:	02f70863          	beq	a4,a5,3002cac <APT_ConfigRefD+0x86>
 3002c80:	fec42783          	lw	a5,-20(s0)
 3002c84:	4398                	lw	a4,0(a5)
 3002c86:	14a027b7          	lui	a5,0x14a02
 3002c8a:	02f70163          	beq	a4,a5,3002cac <APT_ConfigRefD+0x86>
 3002c8e:	fec42783          	lw	a5,-20(s0)
 3002c92:	4398                	lw	a4,0(a5)
 3002c94:	14a037b7          	lui	a5,0x14a03
 3002c98:	00f70a63          	beq	a4,a5,3002cac <APT_ConfigRefD+0x86>
 3002c9c:	56900593          	li	a1,1385
 3002ca0:	030107b7          	lui	a5,0x3010
 3002ca4:	11c78513          	addi	a0,a5,284 # 301011c <g_crgIpMatch+0x27c>
 3002ca8:	2859                	jal	ra,3002d3e <AssertErrorLog>
 3002caa:	a001                	j	3002caa <APT_ConfigRefD+0x84>
 3002cac:	fe842783          	lw	a5,-24(s0)
 3002cb0:	43d8                	lw	a4,4(a5)
 3002cb2:	4785                	li	a5,1
 3002cb4:	00e7fb63          	bgeu	a5,a4,3002cca <APT_ConfigRefD+0xa4>
 3002cb8:	56c00593          	li	a1,1388
 3002cbc:	030107b7          	lui	a5,0x3010
 3002cc0:	11c78513          	addi	a0,a5,284 # 301011c <g_crgIpMatch+0x27c>
 3002cc4:	28ad                	jal	ra,3002d3e <AssertErrorLog>
 3002cc6:	4785                	li	a5,1
 3002cc8:	a0b5                	j	3002d34 <APT_ConfigRefD+0x10e>
 3002cca:	fe842783          	lw	a5,-24(s0)
 3002cce:	4798                	lw	a4,8(a5)
 3002cd0:	47e9                	li	a5,26
 3002cd2:	00e7fb63          	bgeu	a5,a4,3002ce8 <APT_ConfigRefD+0xc2>
 3002cd6:	56f00593          	li	a1,1391
 3002cda:	030107b7          	lui	a5,0x3010
 3002cde:	11c78513          	addi	a0,a5,284 # 301011c <g_crgIpMatch+0x27c>
 3002ce2:	28b1                	jal	ra,3002d3e <AssertErrorLog>
 3002ce4:	4785                	li	a5,1
 3002ce6:	a0b9                	j	3002d34 <APT_ConfigRefD+0x10e>
 3002ce8:	fe842783          	lw	a5,-24(s0)
 3002cec:	47d8                	lw	a4,12(a5)
 3002cee:	478d                	li	a5,3
 3002cf0:	00e7fb63          	bgeu	a5,a4,3002d06 <APT_ConfigRefD+0xe0>
 3002cf4:	57100593          	li	a1,1393
 3002cf8:	030107b7          	lui	a5,0x3010
 3002cfc:	11c78513          	addi	a0,a5,284 # 301011c <g_crgIpMatch+0x27c>
 3002d00:	283d                	jal	ra,3002d3e <AssertErrorLog>
 3002d02:	4785                	li	a5,1
 3002d04:	a805                	j	3002d34 <APT_ConfigRefD+0x10e>
 3002d06:	fe842783          	lw	a5,-24(s0)
 3002d0a:	4394                	lw	a3,0(a5)
 3002d0c:	fec42783          	lw	a5,-20(s0)
 3002d10:	4398                	lw	a4,0(a5)
 3002d12:	01069613          	slli	a2,a3,0x10
 3002d16:	8241                	srli	a2,a2,0x10
 3002d18:	5f5c                	lw	a5,60(a4)
 3002d1a:	66c1                	lui	a3,0x10
 3002d1c:	16fd                	addi	a3,a3,-1 # ffff <RAM_SIZE+0xafff>
 3002d1e:	8ef1                	and	a3,a3,a2
 3002d20:	7641                	lui	a2,0xffff0
 3002d22:	8ff1                	and	a5,a5,a2
 3002d24:	8fd5                	or	a5,a5,a3
 3002d26:	df5c                	sw	a5,60(a4)
 3002d28:	fe842583          	lw	a1,-24(s0)
 3002d2c:	fec42503          	lw	a0,-20(s0)
 3002d30:	3cf9                	jal	ra,300280e <APT_ConfigAction>
 3002d32:	87aa                	mv	a5,a0
 3002d34:	853e                	mv	a0,a5
 3002d36:	40f2                	lw	ra,28(sp)
 3002d38:	4462                	lw	s0,24(sp)
 3002d3a:	6105                	addi	sp,sp,32
 3002d3c:	8082                	ret

03002d3e <AssertErrorLog>:
 3002d3e:	1101                	addi	sp,sp,-32
 3002d40:	ce22                	sw	s0,28(sp)
 3002d42:	1000                	addi	s0,sp,32
 3002d44:	fea42623          	sw	a0,-20(s0)
 3002d48:	feb42423          	sw	a1,-24(s0)
 3002d4c:	0001                	nop
 3002d4e:	4472                	lw	s0,28(sp)
 3002d50:	6105                	addi	sp,sp,32
 3002d52:	8082                	ret

03002d54 <DCL_SYSTICK_GetTick>:
 3002d54:	1141                	addi	sp,sp,-16
 3002d56:	c622                	sw	s0,12(sp)
 3002d58:	0800                	addi	s0,sp,16
 3002d5a:	143807b7          	lui	a5,0x14380
 3002d5e:	479c                	lw	a5,8(a5)
 3002d60:	853e                	mv	a0,a5
 3002d62:	4432                	lw	s0,12(sp)
 3002d64:	0141                	addi	sp,sp,16
 3002d66:	8082                	ret

03002d68 <BASE_FUNC_GetCpuFreqHz>:
 3002d68:	1141                	addi	sp,sp,-16
 3002d6a:	c606                	sw	ra,12(sp)
 3002d6c:	c422                	sw	s0,8(sp)
 3002d6e:	0800                	addi	s0,sp,16
 3002d70:	6ba010ef          	jal	ra,300442a <HAL_CRG_GetCoreClkFreq>
 3002d74:	87aa                	mv	a5,a0
 3002d76:	853e                	mv	a0,a5
 3002d78:	40b2                	lw	ra,12(sp)
 3002d7a:	4422                	lw	s0,8(sp)
 3002d7c:	0141                	addi	sp,sp,16
 3002d7e:	8082                	ret

03002d80 <BASE_FUNC_DelayUs>:
 3002d80:	7179                	addi	sp,sp,-48
 3002d82:	d606                	sw	ra,44(sp)
 3002d84:	d422                	sw	s0,40(sp)
 3002d86:	1800                	addi	s0,sp,48
 3002d88:	fca42e23          	sw	a0,-36(s0)
 3002d8c:	37e1                	jal	ra,3002d54 <DCL_SYSTICK_GetTick>
 3002d8e:	fea42623          	sw	a0,-20(s0)
 3002d92:	a44fe0ef          	jal	ra,3000fd6 <SYSTICK_GetCRGHZ>
 3002d96:	872a                	mv	a4,a0
 3002d98:	000f47b7          	lui	a5,0xf4
 3002d9c:	24078793          	addi	a5,a5,576 # f4240 <FLASH_SIZE+0xd4244>
 3002da0:	02f757b3          	divu	a5,a4,a5
 3002da4:	fdc42703          	lw	a4,-36(s0)
 3002da8:	02f707b3          	mul	a5,a4,a5
 3002dac:	fef42423          	sw	a5,-24(s0)
 3002db0:	3755                	jal	ra,3002d54 <DCL_SYSTICK_GetTick>
 3002db2:	fea42223          	sw	a0,-28(s0)
 3002db6:	fe442703          	lw	a4,-28(s0)
 3002dba:	fec42783          	lw	a5,-20(s0)
 3002dbe:	40f707b3          	sub	a5,a4,a5
 3002dc2:	fef42023          	sw	a5,-32(s0)
 3002dc6:	fe042703          	lw	a4,-32(s0)
 3002dca:	fe842783          	lw	a5,-24(s0)
 3002dce:	fef761e3          	bltu	a4,a5,3002db0 <BASE_FUNC_DelayUs+0x30>
 3002dd2:	0001                	nop
 3002dd4:	50b2                	lw	ra,44(sp)
 3002dd6:	5422                	lw	s0,40(sp)
 3002dd8:	6145                	addi	sp,sp,48
 3002dda:	8082                	ret

03002ddc <BASE_FUNC_DelayMs>:
 3002ddc:	7179                	addi	sp,sp,-48
 3002dde:	d606                	sw	ra,44(sp)
 3002de0:	d422                	sw	s0,40(sp)
 3002de2:	1800                	addi	s0,sp,48
 3002de4:	fca42e23          	sw	a0,-36(s0)
 3002de8:	fe042623          	sw	zero,-20(s0)
 3002dec:	a809                	j	3002dfe <BASE_FUNC_DelayMs+0x22>
 3002dee:	3e800513          	li	a0,1000
 3002df2:	3779                	jal	ra,3002d80 <BASE_FUNC_DelayUs>
 3002df4:	fec42783          	lw	a5,-20(s0)
 3002df8:	0785                	addi	a5,a5,1
 3002dfa:	fef42623          	sw	a5,-20(s0)
 3002dfe:	fec42703          	lw	a4,-20(s0)
 3002e02:	fdc42783          	lw	a5,-36(s0)
 3002e06:	fef764e3          	bltu	a4,a5,3002dee <BASE_FUNC_DelayMs+0x12>
 3002e0a:	0001                	nop
 3002e0c:	50b2                	lw	ra,44(sp)
 3002e0e:	5422                	lw	s0,40(sp)
 3002e10:	6145                	addi	sp,sp,48
 3002e12:	8082                	ret

03002e14 <BASE_FUNC_DelaySeconds>:
 3002e14:	7179                	addi	sp,sp,-48
 3002e16:	d606                	sw	ra,44(sp)
 3002e18:	d422                	sw	s0,40(sp)
 3002e1a:	1800                	addi	s0,sp,48
 3002e1c:	fca42e23          	sw	a0,-36(s0)
 3002e20:	fe042623          	sw	zero,-20(s0)
 3002e24:	a809                	j	3002e36 <BASE_FUNC_DelaySeconds+0x22>
 3002e26:	3e800513          	li	a0,1000
 3002e2a:	3f4d                	jal	ra,3002ddc <BASE_FUNC_DelayMs>
 3002e2c:	fec42783          	lw	a5,-20(s0)
 3002e30:	0785                	addi	a5,a5,1
 3002e32:	fef42623          	sw	a5,-20(s0)
 3002e36:	fec42703          	lw	a4,-20(s0)
 3002e3a:	fdc42783          	lw	a5,-36(s0)
 3002e3e:	fef764e3          	bltu	a4,a5,3002e26 <BASE_FUNC_DelaySeconds+0x12>
 3002e42:	0001                	nop
 3002e44:	50b2                	lw	ra,44(sp)
 3002e46:	5422                	lw	s0,40(sp)
 3002e48:	6145                	addi	sp,sp,48
 3002e4a:	8082                	ret

03002e4c <BASE_FUNC_Delay>:
 3002e4c:	1101                	addi	sp,sp,-32
 3002e4e:	ce06                	sw	ra,28(sp)
 3002e50:	cc22                	sw	s0,24(sp)
 3002e52:	1000                	addi	s0,sp,32
 3002e54:	fea42623          	sw	a0,-20(s0)
 3002e58:	feb42423          	sw	a1,-24(s0)
 3002e5c:	fe842783          	lw	a5,-24(s0)
 3002e60:	3e800713          	li	a4,1000
 3002e64:	02e78063          	beq	a5,a4,3002e84 <BASE_FUNC_Delay+0x38>
 3002e68:	000f4737          	lui	a4,0xf4
 3002e6c:	24070713          	addi	a4,a4,576 # f4240 <FLASH_SIZE+0xd4244>
 3002e70:	00e78e63          	beq	a5,a4,3002e8c <BASE_FUNC_Delay+0x40>
 3002e74:	4705                	li	a4,1
 3002e76:	00e78363          	beq	a5,a4,3002e7c <BASE_FUNC_Delay+0x30>
 3002e7a:	a829                	j	3002e94 <BASE_FUNC_Delay+0x48>
 3002e7c:	fec42503          	lw	a0,-20(s0)
 3002e80:	3f51                	jal	ra,3002e14 <BASE_FUNC_DelaySeconds>
 3002e82:	a809                	j	3002e94 <BASE_FUNC_Delay+0x48>
 3002e84:	fec42503          	lw	a0,-20(s0)
 3002e88:	3f91                	jal	ra,3002ddc <BASE_FUNC_DelayMs>
 3002e8a:	a029                	j	3002e94 <BASE_FUNC_Delay+0x48>
 3002e8c:	fec42503          	lw	a0,-20(s0)
 3002e90:	3dc5                	jal	ra,3002d80 <BASE_FUNC_DelayUs>
 3002e92:	0001                	nop
 3002e94:	0001                	nop
 3002e96:	40f2                	lw	ra,28(sp)
 3002e98:	4462                	lw	s0,24(sp)
 3002e9a:	6105                	addi	sp,sp,32
 3002e9c:	8082                	ret

03002e9e <IRQ_ClearN>:
 3002e9e:	1101                	addi	sp,sp,-32
 3002ea0:	ce22                	sw	s0,28(sp)
 3002ea2:	1000                	addi	s0,sp,32
 3002ea4:	fea42623          	sw	a0,-20(s0)
 3002ea8:	0ff0000f          	fence
 3002eac:	fec42783          	lw	a5,-20(s0)
 3002eb0:	82be                	mv	t0,a5
 3002eb2:	bf029073          	csrw	0xbf0,t0
 3002eb6:	0001                	nop
 3002eb8:	4472                	lw	s0,28(sp)
 3002eba:	6105                	addi	sp,sp,32
 3002ebc:	8082                	ret

03002ebe <InterruptEntry>:
 3002ebe:	1101                	addi	sp,sp,-32
 3002ec0:	ce06                	sw	ra,28(sp)
 3002ec2:	cc22                	sw	s0,24(sp)
 3002ec4:	1000                	addi	s0,sp,32
 3002ec6:	fea42623          	sw	a0,-20(s0)
 3002eca:	040007b7          	lui	a5,0x4000
 3002ece:	17478713          	addi	a4,a5,372 # 4000174 <g_irqCallbackFunc>
 3002ed2:	fec42783          	lw	a5,-20(s0)
 3002ed6:	078e                	slli	a5,a5,0x3
 3002ed8:	97ba                	add	a5,a5,a4
 3002eda:	4394                	lw	a3,0(a5)
 3002edc:	040007b7          	lui	a5,0x4000
 3002ee0:	17478713          	addi	a4,a5,372 # 4000174 <g_irqCallbackFunc>
 3002ee4:	fec42783          	lw	a5,-20(s0)
 3002ee8:	078e                	slli	a5,a5,0x3
 3002eea:	97ba                	add	a5,a5,a4
 3002eec:	43dc                	lw	a5,4(a5)
 3002eee:	853e                	mv	a0,a5
 3002ef0:	9682                	jalr	a3
 3002ef2:	fec42503          	lw	a0,-20(s0)
 3002ef6:	3765                	jal	ra,3002e9e <IRQ_ClearN>
 3002ef8:	0001                	nop
 3002efa:	40f2                	lw	ra,28(sp)
 3002efc:	4462                	lw	s0,24(sp)
 3002efe:	6105                	addi	sp,sp,32
 3002f00:	8082                	ret

03002f02 <IRQ_Init>:
 3002f02:	1101                	addi	sp,sp,-32
 3002f04:	ce22                	sw	s0,28(sp)
 3002f06:	1000                	addi	s0,sp,32
 3002f08:	fe042623          	sw	zero,-20(s0)
 3002f0c:	a82d                	j	3002f46 <IRQ_Init+0x44>
 3002f0e:	040007b7          	lui	a5,0x4000
 3002f12:	17478713          	addi	a4,a5,372 # 4000174 <g_irqCallbackFunc>
 3002f16:	fec42783          	lw	a5,-20(s0)
 3002f1a:	078e                	slli	a5,a5,0x3
 3002f1c:	97ba                	add	a5,a5,a4
 3002f1e:	03003737          	lui	a4,0x3003
 3002f22:	7ec70713          	addi	a4,a4,2028 # 30037ec <IRQ_DummyHandler>
 3002f26:	c398                	sw	a4,0(a5)
 3002f28:	040007b7          	lui	a5,0x4000
 3002f2c:	17478713          	addi	a4,a5,372 # 4000174 <g_irqCallbackFunc>
 3002f30:	fec42783          	lw	a5,-20(s0)
 3002f34:	078e                	slli	a5,a5,0x3
 3002f36:	97ba                	add	a5,a5,a4
 3002f38:	0007a223          	sw	zero,4(a5)
 3002f3c:	fec42783          	lw	a5,-20(s0)
 3002f40:	0785                	addi	a5,a5,1
 3002f42:	fef42623          	sw	a5,-20(s0)
 3002f46:	fec42703          	lw	a4,-20(s0)
 3002f4a:	07200793          	li	a5,114
 3002f4e:	fce7f0e3          	bgeu	a5,a4,3002f0e <IRQ_Init+0xc>
 3002f52:	0001                	nop
 3002f54:	4472                	lw	s0,28(sp)
 3002f56:	6105                	addi	sp,sp,32
 3002f58:	8082                	ret

03002f5a <IRQ_Register>:
 3002f5a:	1101                	addi	sp,sp,-32
 3002f5c:	ce06                	sw	ra,28(sp)
 3002f5e:	cc22                	sw	s0,24(sp)
 3002f60:	1000                	addi	s0,sp,32
 3002f62:	fea42623          	sw	a0,-20(s0)
 3002f66:	feb42423          	sw	a1,-24(s0)
 3002f6a:	fec42223          	sw	a2,-28(s0)
 3002f6e:	fe842783          	lw	a5,-24(s0)
 3002f72:	eb89                	bnez	a5,3002f84 <IRQ_Register+0x2a>
 3002f74:	06300593          	li	a1,99
 3002f78:	030107b7          	lui	a5,0x3010
 3002f7c:	14c78513          	addi	a0,a5,332 # 301014c <g_crgIpMatch+0x2ac>
 3002f80:	3b7d                	jal	ra,3002d3e <AssertErrorLog>
 3002f82:	a001                	j	3002f82 <IRQ_Register+0x28>
 3002f84:	fec42703          	lw	a4,-20(s0)
 3002f88:	07200793          	li	a5,114
 3002f8c:	00e7fb63          	bgeu	a5,a4,3002fa2 <IRQ_Register+0x48>
 3002f90:	06400593          	li	a1,100
 3002f94:	030107b7          	lui	a5,0x3010
 3002f98:	14c78513          	addi	a0,a5,332 # 301014c <g_crgIpMatch+0x2ac>
 3002f9c:	334d                	jal	ra,3002d3e <AssertErrorLog>
 3002f9e:	4789                	li	a5,2
 3002fa0:	a81d                	j	3002fd6 <IRQ_Register+0x7c>
 3002fa2:	040007b7          	lui	a5,0x4000
 3002fa6:	17478713          	addi	a4,a5,372 # 4000174 <g_irqCallbackFunc>
 3002faa:	fec42783          	lw	a5,-20(s0)
 3002fae:	078e                	slli	a5,a5,0x3
 3002fb0:	97ba                	add	a5,a5,a4
 3002fb2:	4398                	lw	a4,0(a5)
 3002fb4:	030037b7          	lui	a5,0x3003
 3002fb8:	7ec78793          	addi	a5,a5,2028 # 30037ec <IRQ_DummyHandler>
 3002fbc:	00f70463          	beq	a4,a5,3002fc4 <IRQ_Register+0x6a>
 3002fc0:	478d                	li	a5,3
 3002fc2:	a811                	j	3002fd6 <IRQ_Register+0x7c>
 3002fc4:	fe442603          	lw	a2,-28(s0)
 3002fc8:	fe842583          	lw	a1,-24(s0)
 3002fcc:	fec42503          	lw	a0,-20(s0)
 3002fd0:	02f000ef          	jal	ra,30037fe <IRQ_SetCallBack>
 3002fd4:	4781                	li	a5,0
 3002fd6:	853e                	mv	a0,a5
 3002fd8:	40f2                	lw	ra,28(sp)
 3002fda:	4462                	lw	s0,24(sp)
 3002fdc:	6105                	addi	sp,sp,32
 3002fde:	8082                	ret

03002fe0 <IRQ_EnableN>:
 3002fe0:	7139                	addi	sp,sp,-64
 3002fe2:	de06                	sw	ra,60(sp)
 3002fe4:	dc22                	sw	s0,56(sp)
 3002fe6:	0080                	addi	s0,sp,64
 3002fe8:	fca42623          	sw	a0,-52(s0)
 3002fec:	059000ef          	jal	ra,3003844 <IRQ_GetCpuPrivilege>
 3002ff0:	fea42623          	sw	a0,-20(s0)
 3002ff4:	fcc42703          	lw	a4,-52(s0)
 3002ff8:	47e5                	li	a5,25
 3002ffa:	00e7f863          	bgeu	a5,a4,300300a <IRQ_EnableN+0x2a>
 3002ffe:	fcc42703          	lw	a4,-52(s0)
 3003002:	07200793          	li	a5,114
 3003006:	00e7fb63          	bgeu	a5,a4,300301c <IRQ_EnableN+0x3c>
 300300a:	0c300593          	li	a1,195
 300300e:	030107b7          	lui	a5,0x3010
 3003012:	14c78513          	addi	a0,a5,332 # 301014c <g_crgIpMatch+0x2ac>
 3003016:	3325                	jal	ra,3002d3e <AssertErrorLog>
 3003018:	4789                	li	a5,2
 300301a:	a239                	j	3003128 <IRQ_EnableN+0x148>
 300301c:	fec42703          	lw	a4,-20(s0)
 3003020:	47a1                	li	a5,8
 3003022:	00f71463          	bne	a4,a5,300302a <IRQ_EnableN+0x4a>
 3003026:	00000073          	ecall
 300302a:	fcc42703          	lw	a4,-52(s0)
 300302e:	47fd                	li	a5,31
 3003030:	02e7e063          	bltu	a5,a4,3003050 <IRQ_EnableN+0x70>
 3003034:	4705                	li	a4,1
 3003036:	fcc42783          	lw	a5,-52(s0)
 300303a:	00f717b3          	sll	a5,a4,a5
 300303e:	fef42423          	sw	a5,-24(s0)
 3003042:	fe842783          	lw	a5,-24(s0)
 3003046:	3047a7f3          	csrrs	a5,mie,a5
 300304a:	fcf42a23          	sw	a5,-44(s0)
 300304e:	a0e9                	j	3003118 <IRQ_EnableN+0x138>
 3003050:	fcc42703          	lw	a4,-52(s0)
 3003054:	03f00793          	li	a5,63
 3003058:	02e7ef63          	bltu	a5,a4,3003096 <IRQ_EnableN+0xb6>
 300305c:	fcc42783          	lw	a5,-52(s0)
 3003060:	1781                	addi	a5,a5,-32
 3003062:	fef42423          	sw	a5,-24(s0)
 3003066:	be0027f3          	csrr	a5,0xbe0
 300306a:	fcf42c23          	sw	a5,-40(s0)
 300306e:	fd842783          	lw	a5,-40(s0)
 3003072:	fef42023          	sw	a5,-32(s0)
 3003076:	4705                	li	a4,1
 3003078:	fe842783          	lw	a5,-24(s0)
 300307c:	00f717b3          	sll	a5,a4,a5
 3003080:	fe042703          	lw	a4,-32(s0)
 3003084:	8fd9                	or	a5,a5,a4
 3003086:	fef42023          	sw	a5,-32(s0)
 300308a:	fe042783          	lw	a5,-32(s0)
 300308e:	82be                	mv	t0,a5
 3003090:	be029073          	csrw	0xbe0,t0
 3003094:	a051                	j	3003118 <IRQ_EnableN+0x138>
 3003096:	fcc42703          	lw	a4,-52(s0)
 300309a:	05f00793          	li	a5,95
 300309e:	04e7e063          	bltu	a5,a4,30030de <IRQ_EnableN+0xfe>
 30030a2:	fcc42783          	lw	a5,-52(s0)
 30030a6:	fc078793          	addi	a5,a5,-64
 30030aa:	fef42423          	sw	a5,-24(s0)
 30030ae:	be1027f3          	csrr	a5,0xbe1
 30030b2:	fcf42e23          	sw	a5,-36(s0)
 30030b6:	fdc42783          	lw	a5,-36(s0)
 30030ba:	fef42023          	sw	a5,-32(s0)
 30030be:	4705                	li	a4,1
 30030c0:	fe842783          	lw	a5,-24(s0)
 30030c4:	00f717b3          	sll	a5,a4,a5
 30030c8:	fe042703          	lw	a4,-32(s0)
 30030cc:	8fd9                	or	a5,a5,a4
 30030ce:	fef42023          	sw	a5,-32(s0)
 30030d2:	fe042783          	lw	a5,-32(s0)
 30030d6:	82be                	mv	t0,a5
 30030d8:	be129073          	csrw	0xbe1,t0
 30030dc:	a835                	j	3003118 <IRQ_EnableN+0x138>
 30030de:	fcc42783          	lw	a5,-52(s0)
 30030e2:	fa078793          	addi	a5,a5,-96
 30030e6:	fef42423          	sw	a5,-24(s0)
 30030ea:	be2027f3          	csrr	a5,0xbe2
 30030ee:	fef42223          	sw	a5,-28(s0)
 30030f2:	fe442783          	lw	a5,-28(s0)
 30030f6:	fef42023          	sw	a5,-32(s0)
 30030fa:	4705                	li	a4,1
 30030fc:	fe842783          	lw	a5,-24(s0)
 3003100:	00f717b3          	sll	a5,a4,a5
 3003104:	fe042703          	lw	a4,-32(s0)
 3003108:	8fd9                	or	a5,a5,a4
 300310a:	fef42023          	sw	a5,-32(s0)
 300310e:	fe042783          	lw	a5,-32(s0)
 3003112:	82be                	mv	t0,a5
 3003114:	be229073          	csrw	0xbe2,t0
 3003118:	fec42703          	lw	a4,-20(s0)
 300311c:	47a1                	li	a5,8
 300311e:	00f71463          	bne	a4,a5,3003126 <IRQ_EnableN+0x146>
 3003122:	00000073          	ecall
 3003126:	4781                	li	a5,0
 3003128:	853e                	mv	a0,a5
 300312a:	50f2                	lw	ra,60(sp)
 300312c:	5462                	lw	s0,56(sp)
 300312e:	6121                	addi	sp,sp,64
 3003130:	8082                	ret

03003132 <SysErrPrint>:
 3003132:	1101                	addi	sp,sp,-32
 3003134:	ce22                	sw	s0,28(sp)
 3003136:	1000                	addi	s0,sp,32
 3003138:	fea42623          	sw	a0,-20(s0)
 300313c:	0001                	nop
 300313e:	4472                	lw	s0,28(sp)
 3003140:	6105                	addi	sp,sp,32
 3003142:	8082                	ret

03003144 <SysErrFinish>:
 3003144:	1141                	addi	sp,sp,-16
 3003146:	c622                	sw	s0,12(sp)
 3003148:	0800                	addi	s0,sp,16
 300314a:	0001                	nop
 300314c:	4432                	lw	s0,12(sp)
 300314e:	0141                	addi	sp,sp,16
 3003150:	8082                	ret

03003152 <SysErrExcEntry>:
 3003152:	1101                	addi	sp,sp,-32
 3003154:	ce06                	sw	ra,28(sp)
 3003156:	cc22                	sw	s0,24(sp)
 3003158:	1000                	addi	s0,sp,32
 300315a:	fea42623          	sw	a0,-20(s0)
 300315e:	fec42503          	lw	a0,-20(s0)
 3003162:	3fc1                	jal	ra,3003132 <SysErrPrint>
 3003164:	37c5                	jal	ra,3003144 <SysErrFinish>
 3003166:	0001                	nop
 3003168:	40f2                	lw	ra,28(sp)
 300316a:	4462                	lw	s0,24(sp)
 300316c:	6105                	addi	sp,sp,32
 300316e:	8082                	ret

03003170 <SysErrNmiEntry>:
 3003170:	1101                	addi	sp,sp,-32
 3003172:	ce06                	sw	ra,28(sp)
 3003174:	cc22                	sw	s0,24(sp)
 3003176:	1000                	addi	s0,sp,32
 3003178:	fea42623          	sw	a0,-20(s0)
 300317c:	fec42783          	lw	a5,-20(s0)
 3003180:	eb89                	bnez	a5,3003192 <SysErrNmiEntry+0x22>
 3003182:	12d00593          	li	a1,301
 3003186:	030107b7          	lui	a5,0x3010
 300318a:	14c78513          	addi	a0,a5,332 # 301014c <g_crgIpMatch+0x2ac>
 300318e:	3e45                	jal	ra,3002d3e <AssertErrorLog>
 3003190:	a001                	j	3003190 <SysErrNmiEntry+0x20>
 3003192:	fec42503          	lw	a0,-20(s0)
 3003196:	3f71                	jal	ra,3003132 <SysErrPrint>
 3003198:	3775                	jal	ra,3003144 <SysErrFinish>
 300319a:	0001                	nop
 300319c:	40f2                	lw	ra,28(sp)
 300319e:	4462                	lw	s0,24(sp)
 30031a0:	6105                	addi	sp,sp,32
 30031a2:	8082                	ret

030031a4 <SetLocalIntNumPri>:
 30031a4:	711d                	addi	sp,sp,-96
 30031a6:	cea2                	sw	s0,92(sp)
 30031a8:	1080                	addi	s0,sp,96
 30031aa:	faa42623          	sw	a0,-84(s0)
 30031ae:	fab42423          	sw	a1,-88(s0)
 30031b2:	fac42223          	sw	a2,-92(s0)
 30031b6:	fac42783          	lw	a5,-84(s0)
 30031ba:	17e1                	addi	a5,a5,-8
 30031bc:	471d                	li	a4,7
 30031be:	2af76363          	bltu	a4,a5,3003464 <SetLocalIntNumPri+0x2c0>
 30031c2:	00279713          	slli	a4,a5,0x2
 30031c6:	030107b7          	lui	a5,0x3010
 30031ca:	16c78793          	addi	a5,a5,364 # 301016c <g_crgIpMatch+0x2cc>
 30031ce:	97ba                	add	a5,a5,a4
 30031d0:	439c                	lw	a5,0(a5)
 30031d2:	8782                	jr	a5
 30031d4:	bc8027f3          	csrr	a5,0xbc8
 30031d8:	faf42a23          	sw	a5,-76(s0)
 30031dc:	fb442783          	lw	a5,-76(s0)
 30031e0:	faf42823          	sw	a5,-80(s0)
 30031e4:	fa842783          	lw	a5,-88(s0)
 30031e8:	078a                	slli	a5,a5,0x2
 30031ea:	8bf1                	andi	a5,a5,28
 30031ec:	473d                	li	a4,15
 30031ee:	00f717b3          	sll	a5,a4,a5
 30031f2:	fff7c793          	not	a5,a5
 30031f6:	fb042703          	lw	a4,-80(s0)
 30031fa:	8ff9                	and	a5,a5,a4
 30031fc:	faf42823          	sw	a5,-80(s0)
 3003200:	fa842783          	lw	a5,-88(s0)
 3003204:	078a                	slli	a5,a5,0x2
 3003206:	8bf1                	andi	a5,a5,28
 3003208:	fa442703          	lw	a4,-92(s0)
 300320c:	00f717b3          	sll	a5,a4,a5
 3003210:	fb042703          	lw	a4,-80(s0)
 3003214:	8fd9                	or	a5,a5,a4
 3003216:	faf42823          	sw	a5,-80(s0)
 300321a:	fb042783          	lw	a5,-80(s0)
 300321e:	82be                	mv	t0,a5
 3003220:	bc829073          	csrw	0xbc8,t0
 3003224:	a489                	j	3003466 <SetLocalIntNumPri+0x2c2>
 3003226:	bc9027f3          	csrr	a5,0xbc9
 300322a:	faf42e23          	sw	a5,-68(s0)
 300322e:	fbc42783          	lw	a5,-68(s0)
 3003232:	faf42c23          	sw	a5,-72(s0)
 3003236:	fa842783          	lw	a5,-88(s0)
 300323a:	078a                	slli	a5,a5,0x2
 300323c:	8bf1                	andi	a5,a5,28
 300323e:	473d                	li	a4,15
 3003240:	00f717b3          	sll	a5,a4,a5
 3003244:	fff7c793          	not	a5,a5
 3003248:	fb842703          	lw	a4,-72(s0)
 300324c:	8ff9                	and	a5,a5,a4
 300324e:	faf42c23          	sw	a5,-72(s0)
 3003252:	fa842783          	lw	a5,-88(s0)
 3003256:	078a                	slli	a5,a5,0x2
 3003258:	8bf1                	andi	a5,a5,28
 300325a:	fa442703          	lw	a4,-92(s0)
 300325e:	00f717b3          	sll	a5,a4,a5
 3003262:	fb842703          	lw	a4,-72(s0)
 3003266:	8fd9                	or	a5,a5,a4
 3003268:	faf42c23          	sw	a5,-72(s0)
 300326c:	fb842783          	lw	a5,-72(s0)
 3003270:	82be                	mv	t0,a5
 3003272:	bc929073          	csrw	0xbc9,t0
 3003276:	aac5                	j	3003466 <SetLocalIntNumPri+0x2c2>
 3003278:	bca027f3          	csrr	a5,0xbca
 300327c:	fcf42223          	sw	a5,-60(s0)
 3003280:	fc442783          	lw	a5,-60(s0)
 3003284:	fcf42023          	sw	a5,-64(s0)
 3003288:	fa842783          	lw	a5,-88(s0)
 300328c:	078a                	slli	a5,a5,0x2
 300328e:	8bf1                	andi	a5,a5,28
 3003290:	473d                	li	a4,15
 3003292:	00f717b3          	sll	a5,a4,a5
 3003296:	fff7c793          	not	a5,a5
 300329a:	fc042703          	lw	a4,-64(s0)
 300329e:	8ff9                	and	a5,a5,a4
 30032a0:	fcf42023          	sw	a5,-64(s0)
 30032a4:	fa842783          	lw	a5,-88(s0)
 30032a8:	078a                	slli	a5,a5,0x2
 30032aa:	8bf1                	andi	a5,a5,28
 30032ac:	fa442703          	lw	a4,-92(s0)
 30032b0:	00f717b3          	sll	a5,a4,a5
 30032b4:	fc042703          	lw	a4,-64(s0)
 30032b8:	8fd9                	or	a5,a5,a4
 30032ba:	fcf42023          	sw	a5,-64(s0)
 30032be:	fc042783          	lw	a5,-64(s0)
 30032c2:	82be                	mv	t0,a5
 30032c4:	bca29073          	csrw	0xbca,t0
 30032c8:	aa79                	j	3003466 <SetLocalIntNumPri+0x2c2>
 30032ca:	bcb027f3          	csrr	a5,0xbcb
 30032ce:	fcf42623          	sw	a5,-52(s0)
 30032d2:	fcc42783          	lw	a5,-52(s0)
 30032d6:	fcf42423          	sw	a5,-56(s0)
 30032da:	fa842783          	lw	a5,-88(s0)
 30032de:	078a                	slli	a5,a5,0x2
 30032e0:	8bf1                	andi	a5,a5,28
 30032e2:	473d                	li	a4,15
 30032e4:	00f717b3          	sll	a5,a4,a5
 30032e8:	fff7c793          	not	a5,a5
 30032ec:	fc842703          	lw	a4,-56(s0)
 30032f0:	8ff9                	and	a5,a5,a4
 30032f2:	fcf42423          	sw	a5,-56(s0)
 30032f6:	fa842783          	lw	a5,-88(s0)
 30032fa:	078a                	slli	a5,a5,0x2
 30032fc:	8bf1                	andi	a5,a5,28
 30032fe:	fa442703          	lw	a4,-92(s0)
 3003302:	00f717b3          	sll	a5,a4,a5
 3003306:	fc842703          	lw	a4,-56(s0)
 300330a:	8fd9                	or	a5,a5,a4
 300330c:	fcf42423          	sw	a5,-56(s0)
 3003310:	fc842783          	lw	a5,-56(s0)
 3003314:	82be                	mv	t0,a5
 3003316:	bcb29073          	csrw	0xbcb,t0
 300331a:	a2b1                	j	3003466 <SetLocalIntNumPri+0x2c2>
 300331c:	bcc027f3          	csrr	a5,0xbcc
 3003320:	fcf42a23          	sw	a5,-44(s0)
 3003324:	fd442783          	lw	a5,-44(s0)
 3003328:	fcf42823          	sw	a5,-48(s0)
 300332c:	fa842783          	lw	a5,-88(s0)
 3003330:	078a                	slli	a5,a5,0x2
 3003332:	8bf1                	andi	a5,a5,28
 3003334:	473d                	li	a4,15
 3003336:	00f717b3          	sll	a5,a4,a5
 300333a:	fff7c793          	not	a5,a5
 300333e:	fd042703          	lw	a4,-48(s0)
 3003342:	8ff9                	and	a5,a5,a4
 3003344:	fcf42823          	sw	a5,-48(s0)
 3003348:	fa842783          	lw	a5,-88(s0)
 300334c:	078a                	slli	a5,a5,0x2
 300334e:	8bf1                	andi	a5,a5,28
 3003350:	fa442703          	lw	a4,-92(s0)
 3003354:	00f717b3          	sll	a5,a4,a5
 3003358:	fd042703          	lw	a4,-48(s0)
 300335c:	8fd9                	or	a5,a5,a4
 300335e:	fcf42823          	sw	a5,-48(s0)
 3003362:	fd042783          	lw	a5,-48(s0)
 3003366:	82be                	mv	t0,a5
 3003368:	bcc29073          	csrw	0xbcc,t0
 300336c:	a8ed                	j	3003466 <SetLocalIntNumPri+0x2c2>
 300336e:	bcd027f3          	csrr	a5,0xbcd
 3003372:	fcf42e23          	sw	a5,-36(s0)
 3003376:	fdc42783          	lw	a5,-36(s0)
 300337a:	fcf42c23          	sw	a5,-40(s0)
 300337e:	fa842783          	lw	a5,-88(s0)
 3003382:	078a                	slli	a5,a5,0x2
 3003384:	8bf1                	andi	a5,a5,28
 3003386:	473d                	li	a4,15
 3003388:	00f717b3          	sll	a5,a4,a5
 300338c:	fff7c793          	not	a5,a5
 3003390:	fd842703          	lw	a4,-40(s0)
 3003394:	8ff9                	and	a5,a5,a4
 3003396:	fcf42c23          	sw	a5,-40(s0)
 300339a:	fa842783          	lw	a5,-88(s0)
 300339e:	078a                	slli	a5,a5,0x2
 30033a0:	8bf1                	andi	a5,a5,28
 30033a2:	fa442703          	lw	a4,-92(s0)
 30033a6:	00f717b3          	sll	a5,a4,a5
 30033aa:	fd842703          	lw	a4,-40(s0)
 30033ae:	8fd9                	or	a5,a5,a4
 30033b0:	fcf42c23          	sw	a5,-40(s0)
 30033b4:	fd842783          	lw	a5,-40(s0)
 30033b8:	82be                	mv	t0,a5
 30033ba:	bcd29073          	csrw	0xbcd,t0
 30033be:	a065                	j	3003466 <SetLocalIntNumPri+0x2c2>
 30033c0:	bce027f3          	csrr	a5,0xbce
 30033c4:	fef42223          	sw	a5,-28(s0)
 30033c8:	fe442783          	lw	a5,-28(s0)
 30033cc:	fef42023          	sw	a5,-32(s0)
 30033d0:	fa842783          	lw	a5,-88(s0)
 30033d4:	078a                	slli	a5,a5,0x2
 30033d6:	8bf1                	andi	a5,a5,28
 30033d8:	473d                	li	a4,15
 30033da:	00f717b3          	sll	a5,a4,a5
 30033de:	fff7c793          	not	a5,a5
 30033e2:	fe042703          	lw	a4,-32(s0)
 30033e6:	8ff9                	and	a5,a5,a4
 30033e8:	fef42023          	sw	a5,-32(s0)
 30033ec:	fa842783          	lw	a5,-88(s0)
 30033f0:	078a                	slli	a5,a5,0x2
 30033f2:	8bf1                	andi	a5,a5,28
 30033f4:	fa442703          	lw	a4,-92(s0)
 30033f8:	00f717b3          	sll	a5,a4,a5
 30033fc:	fe042703          	lw	a4,-32(s0)
 3003400:	8fd9                	or	a5,a5,a4
 3003402:	fef42023          	sw	a5,-32(s0)
 3003406:	fe042783          	lw	a5,-32(s0)
 300340a:	82be                	mv	t0,a5
 300340c:	bce29073          	csrw	0xbce,t0
 3003410:	a899                	j	3003466 <SetLocalIntNumPri+0x2c2>
 3003412:	bcf027f3          	csrr	a5,0xbcf
 3003416:	fef42623          	sw	a5,-20(s0)
 300341a:	fec42783          	lw	a5,-20(s0)
 300341e:	fef42423          	sw	a5,-24(s0)
 3003422:	fa842783          	lw	a5,-88(s0)
 3003426:	078a                	slli	a5,a5,0x2
 3003428:	8bf1                	andi	a5,a5,28
 300342a:	473d                	li	a4,15
 300342c:	00f717b3          	sll	a5,a4,a5
 3003430:	fff7c793          	not	a5,a5
 3003434:	fe842703          	lw	a4,-24(s0)
 3003438:	8ff9                	and	a5,a5,a4
 300343a:	fef42423          	sw	a5,-24(s0)
 300343e:	fa842783          	lw	a5,-88(s0)
 3003442:	078a                	slli	a5,a5,0x2
 3003444:	8bf1                	andi	a5,a5,28
 3003446:	fa442703          	lw	a4,-92(s0)
 300344a:	00f717b3          	sll	a5,a4,a5
 300344e:	fe842703          	lw	a4,-24(s0)
 3003452:	8fd9                	or	a5,a5,a4
 3003454:	fef42423          	sw	a5,-24(s0)
 3003458:	fe842783          	lw	a5,-24(s0)
 300345c:	82be                	mv	t0,a5
 300345e:	bcf29073          	csrw	0xbcf,t0
 3003462:	a011                	j	3003466 <SetLocalIntNumPri+0x2c2>
 3003464:	0001                	nop
 3003466:	0001                	nop
 3003468:	4476                	lw	s0,92(sp)
 300346a:	6125                	addi	sp,sp,96
 300346c:	8082                	ret

0300346e <IRQ_SetLocalPriority>:
 300346e:	7159                	addi	sp,sp,-112
 3003470:	d686                	sw	ra,108(sp)
 3003472:	d4a2                	sw	s0,104(sp)
 3003474:	1880                	addi	s0,sp,112
 3003476:	f8a42e23          	sw	a0,-100(s0)
 300347a:	f8b42c23          	sw	a1,-104(s0)
 300347e:	26d9                	jal	ra,3003844 <IRQ_GetCpuPrivilege>
 3003480:	fea42623          	sw	a0,-20(s0)
 3003484:	fec42703          	lw	a4,-20(s0)
 3003488:	47a1                	li	a5,8
 300348a:	00f71463          	bne	a4,a5,3003492 <IRQ_SetLocalPriority+0x24>
 300348e:	00000073          	ecall
 3003492:	f9c42783          	lw	a5,-100(s0)
 3003496:	838d                	srli	a5,a5,0x3
 3003498:	fef42423          	sw	a5,-24(s0)
 300349c:	fe842703          	lw	a4,-24(s0)
 30034a0:	479d                	li	a5,7
 30034a2:	2ae7e563          	bltu	a5,a4,300374c <IRQ_SetLocalPriority+0x2de>
 30034a6:	fe842783          	lw	a5,-24(s0)
 30034aa:	00279713          	slli	a4,a5,0x2
 30034ae:	030107b7          	lui	a5,0x3010
 30034b2:	18c78793          	addi	a5,a5,396 # 301018c <g_crgIpMatch+0x2ec>
 30034b6:	97ba                	add	a5,a5,a4
 30034b8:	439c                	lw	a5,0(a5)
 30034ba:	8782                	jr	a5
 30034bc:	bc0027f3          	csrr	a5,0xbc0
 30034c0:	faf42623          	sw	a5,-84(s0)
 30034c4:	fac42783          	lw	a5,-84(s0)
 30034c8:	faf42423          	sw	a5,-88(s0)
 30034cc:	f9c42783          	lw	a5,-100(s0)
 30034d0:	078a                	slli	a5,a5,0x2
 30034d2:	8bf1                	andi	a5,a5,28
 30034d4:	473d                	li	a4,15
 30034d6:	00f717b3          	sll	a5,a4,a5
 30034da:	fff7c793          	not	a5,a5
 30034de:	fa842703          	lw	a4,-88(s0)
 30034e2:	8ff9                	and	a5,a5,a4
 30034e4:	faf42423          	sw	a5,-88(s0)
 30034e8:	f9c42783          	lw	a5,-100(s0)
 30034ec:	078a                	slli	a5,a5,0x2
 30034ee:	8bf1                	andi	a5,a5,28
 30034f0:	f9842703          	lw	a4,-104(s0)
 30034f4:	00f717b3          	sll	a5,a4,a5
 30034f8:	fa842703          	lw	a4,-88(s0)
 30034fc:	8fd9                	or	a5,a5,a4
 30034fe:	faf42423          	sw	a5,-88(s0)
 3003502:	fa842783          	lw	a5,-88(s0)
 3003506:	82be                	mv	t0,a5
 3003508:	bc029073          	csrw	0xbc0,t0
 300350c:	ac81                	j	300375c <IRQ_SetLocalPriority+0x2ee>
 300350e:	bc1027f3          	csrr	a5,0xbc1
 3003512:	faf42a23          	sw	a5,-76(s0)
 3003516:	fb442783          	lw	a5,-76(s0)
 300351a:	faf42823          	sw	a5,-80(s0)
 300351e:	f9c42783          	lw	a5,-100(s0)
 3003522:	078a                	slli	a5,a5,0x2
 3003524:	8bf1                	andi	a5,a5,28
 3003526:	473d                	li	a4,15
 3003528:	00f717b3          	sll	a5,a4,a5
 300352c:	fff7c793          	not	a5,a5
 3003530:	fb042703          	lw	a4,-80(s0)
 3003534:	8ff9                	and	a5,a5,a4
 3003536:	faf42823          	sw	a5,-80(s0)
 300353a:	f9c42783          	lw	a5,-100(s0)
 300353e:	078a                	slli	a5,a5,0x2
 3003540:	8bf1                	andi	a5,a5,28
 3003542:	f9842703          	lw	a4,-104(s0)
 3003546:	00f717b3          	sll	a5,a4,a5
 300354a:	fb042703          	lw	a4,-80(s0)
 300354e:	8fd9                	or	a5,a5,a4
 3003550:	faf42823          	sw	a5,-80(s0)
 3003554:	fb042783          	lw	a5,-80(s0)
 3003558:	82be                	mv	t0,a5
 300355a:	bc129073          	csrw	0xbc1,t0
 300355e:	aafd                	j	300375c <IRQ_SetLocalPriority+0x2ee>
 3003560:	bc2027f3          	csrr	a5,0xbc2
 3003564:	faf42e23          	sw	a5,-68(s0)
 3003568:	fbc42783          	lw	a5,-68(s0)
 300356c:	faf42c23          	sw	a5,-72(s0)
 3003570:	f9c42783          	lw	a5,-100(s0)
 3003574:	078a                	slli	a5,a5,0x2
 3003576:	8bf1                	andi	a5,a5,28
 3003578:	473d                	li	a4,15
 300357a:	00f717b3          	sll	a5,a4,a5
 300357e:	fff7c793          	not	a5,a5
 3003582:	fb842703          	lw	a4,-72(s0)
 3003586:	8ff9                	and	a5,a5,a4
 3003588:	faf42c23          	sw	a5,-72(s0)
 300358c:	f9c42783          	lw	a5,-100(s0)
 3003590:	078a                	slli	a5,a5,0x2
 3003592:	8bf1                	andi	a5,a5,28
 3003594:	f9842703          	lw	a4,-104(s0)
 3003598:	00f717b3          	sll	a5,a4,a5
 300359c:	fb842703          	lw	a4,-72(s0)
 30035a0:	8fd9                	or	a5,a5,a4
 30035a2:	faf42c23          	sw	a5,-72(s0)
 30035a6:	fb842783          	lw	a5,-72(s0)
 30035aa:	82be                	mv	t0,a5
 30035ac:	bc229073          	csrw	0xbc2,t0
 30035b0:	a275                	j	300375c <IRQ_SetLocalPriority+0x2ee>
 30035b2:	bc3027f3          	csrr	a5,0xbc3
 30035b6:	fcf42223          	sw	a5,-60(s0)
 30035ba:	fc442783          	lw	a5,-60(s0)
 30035be:	fcf42023          	sw	a5,-64(s0)
 30035c2:	f9c42783          	lw	a5,-100(s0)
 30035c6:	078a                	slli	a5,a5,0x2
 30035c8:	8bf1                	andi	a5,a5,28
 30035ca:	473d                	li	a4,15
 30035cc:	00f717b3          	sll	a5,a4,a5
 30035d0:	fff7c793          	not	a5,a5
 30035d4:	fc042703          	lw	a4,-64(s0)
 30035d8:	8ff9                	and	a5,a5,a4
 30035da:	fcf42023          	sw	a5,-64(s0)
 30035de:	f9c42783          	lw	a5,-100(s0)
 30035e2:	078a                	slli	a5,a5,0x2
 30035e4:	8bf1                	andi	a5,a5,28
 30035e6:	f9842703          	lw	a4,-104(s0)
 30035ea:	00f717b3          	sll	a5,a4,a5
 30035ee:	fc042703          	lw	a4,-64(s0)
 30035f2:	8fd9                	or	a5,a5,a4
 30035f4:	fcf42023          	sw	a5,-64(s0)
 30035f8:	fc042783          	lw	a5,-64(s0)
 30035fc:	82be                	mv	t0,a5
 30035fe:	bc329073          	csrw	0xbc3,t0
 3003602:	aaa9                	j	300375c <IRQ_SetLocalPriority+0x2ee>
 3003604:	bc4027f3          	csrr	a5,0xbc4
 3003608:	fcf42623          	sw	a5,-52(s0)
 300360c:	fcc42783          	lw	a5,-52(s0)
 3003610:	fcf42423          	sw	a5,-56(s0)
 3003614:	f9c42783          	lw	a5,-100(s0)
 3003618:	078a                	slli	a5,a5,0x2
 300361a:	8bf1                	andi	a5,a5,28
 300361c:	473d                	li	a4,15
 300361e:	00f717b3          	sll	a5,a4,a5
 3003622:	fff7c793          	not	a5,a5
 3003626:	fc842703          	lw	a4,-56(s0)
 300362a:	8ff9                	and	a5,a5,a4
 300362c:	fcf42423          	sw	a5,-56(s0)
 3003630:	f9c42783          	lw	a5,-100(s0)
 3003634:	078a                	slli	a5,a5,0x2
 3003636:	8bf1                	andi	a5,a5,28
 3003638:	f9842703          	lw	a4,-104(s0)
 300363c:	00f717b3          	sll	a5,a4,a5
 3003640:	fc842703          	lw	a4,-56(s0)
 3003644:	8fd9                	or	a5,a5,a4
 3003646:	fcf42423          	sw	a5,-56(s0)
 300364a:	fc842783          	lw	a5,-56(s0)
 300364e:	82be                	mv	t0,a5
 3003650:	bc429073          	csrw	0xbc4,t0
 3003654:	a221                	j	300375c <IRQ_SetLocalPriority+0x2ee>
 3003656:	bc5027f3          	csrr	a5,0xbc5
 300365a:	fcf42a23          	sw	a5,-44(s0)
 300365e:	fd442783          	lw	a5,-44(s0)
 3003662:	fcf42823          	sw	a5,-48(s0)
 3003666:	f9c42783          	lw	a5,-100(s0)
 300366a:	078a                	slli	a5,a5,0x2
 300366c:	8bf1                	andi	a5,a5,28
 300366e:	473d                	li	a4,15
 3003670:	00f717b3          	sll	a5,a4,a5
 3003674:	fff7c793          	not	a5,a5
 3003678:	fd042703          	lw	a4,-48(s0)
 300367c:	8ff9                	and	a5,a5,a4
 300367e:	fcf42823          	sw	a5,-48(s0)
 3003682:	f9c42783          	lw	a5,-100(s0)
 3003686:	078a                	slli	a5,a5,0x2
 3003688:	8bf1                	andi	a5,a5,28
 300368a:	f9842703          	lw	a4,-104(s0)
 300368e:	00f717b3          	sll	a5,a4,a5
 3003692:	fd042703          	lw	a4,-48(s0)
 3003696:	8fd9                	or	a5,a5,a4
 3003698:	fcf42823          	sw	a5,-48(s0)
 300369c:	fd042783          	lw	a5,-48(s0)
 30036a0:	82be                	mv	t0,a5
 30036a2:	bc529073          	csrw	0xbc5,t0
 30036a6:	a85d                	j	300375c <IRQ_SetLocalPriority+0x2ee>
 30036a8:	bc6027f3          	csrr	a5,0xbc6
 30036ac:	fcf42e23          	sw	a5,-36(s0)
 30036b0:	fdc42783          	lw	a5,-36(s0)
 30036b4:	fcf42c23          	sw	a5,-40(s0)
 30036b8:	f9c42783          	lw	a5,-100(s0)
 30036bc:	078a                	slli	a5,a5,0x2
 30036be:	8bf1                	andi	a5,a5,28
 30036c0:	473d                	li	a4,15
 30036c2:	00f717b3          	sll	a5,a4,a5
 30036c6:	fff7c793          	not	a5,a5
 30036ca:	fd842703          	lw	a4,-40(s0)
 30036ce:	8ff9                	and	a5,a5,a4
 30036d0:	fcf42c23          	sw	a5,-40(s0)
 30036d4:	f9c42783          	lw	a5,-100(s0)
 30036d8:	078a                	slli	a5,a5,0x2
 30036da:	8bf1                	andi	a5,a5,28
 30036dc:	f9842703          	lw	a4,-104(s0)
 30036e0:	00f717b3          	sll	a5,a4,a5
 30036e4:	fd842703          	lw	a4,-40(s0)
 30036e8:	8fd9                	or	a5,a5,a4
 30036ea:	fcf42c23          	sw	a5,-40(s0)
 30036ee:	fd842783          	lw	a5,-40(s0)
 30036f2:	82be                	mv	t0,a5
 30036f4:	bc629073          	csrw	0xbc6,t0
 30036f8:	a095                	j	300375c <IRQ_SetLocalPriority+0x2ee>
 30036fa:	bc7027f3          	csrr	a5,0xbc7
 30036fe:	fef42223          	sw	a5,-28(s0)
 3003702:	fe442783          	lw	a5,-28(s0)
 3003706:	fef42023          	sw	a5,-32(s0)
 300370a:	f9c42783          	lw	a5,-100(s0)
 300370e:	078a                	slli	a5,a5,0x2
 3003710:	8bf1                	andi	a5,a5,28
 3003712:	473d                	li	a4,15
 3003714:	00f717b3          	sll	a5,a4,a5
 3003718:	fff7c793          	not	a5,a5
 300371c:	fe042703          	lw	a4,-32(s0)
 3003720:	8ff9                	and	a5,a5,a4
 3003722:	fef42023          	sw	a5,-32(s0)
 3003726:	f9c42783          	lw	a5,-100(s0)
 300372a:	078a                	slli	a5,a5,0x2
 300372c:	8bf1                	andi	a5,a5,28
 300372e:	f9842703          	lw	a4,-104(s0)
 3003732:	00f717b3          	sll	a5,a4,a5
 3003736:	fe042703          	lw	a4,-32(s0)
 300373a:	8fd9                	or	a5,a5,a4
 300373c:	fef42023          	sw	a5,-32(s0)
 3003740:	fe042783          	lw	a5,-32(s0)
 3003744:	82be                	mv	t0,a5
 3003746:	bc729073          	csrw	0xbc7,t0
 300374a:	a809                	j	300375c <IRQ_SetLocalPriority+0x2ee>
 300374c:	f9842603          	lw	a2,-104(s0)
 3003750:	f9c42583          	lw	a1,-100(s0)
 3003754:	fe842503          	lw	a0,-24(s0)
 3003758:	34b1                	jal	ra,30031a4 <SetLocalIntNumPri>
 300375a:	0001                	nop
 300375c:	fec42703          	lw	a4,-20(s0)
 3003760:	47a1                	li	a5,8
 3003762:	00f71463          	bne	a4,a5,300376a <IRQ_SetLocalPriority+0x2fc>
 3003766:	00000073          	ecall
 300376a:	0001                	nop
 300376c:	50b6                	lw	ra,108(sp)
 300376e:	5426                	lw	s0,104(sp)
 3003770:	6165                	addi	sp,sp,112
 3003772:	8082                	ret

03003774 <IRQ_SetPriority>:
 3003774:	1101                	addi	sp,sp,-32
 3003776:	ce06                	sw	ra,28(sp)
 3003778:	cc22                	sw	s0,24(sp)
 300377a:	1000                	addi	s0,sp,32
 300377c:	fea42623          	sw	a0,-20(s0)
 3003780:	feb42423          	sw	a1,-24(s0)
 3003784:	fec42703          	lw	a4,-20(s0)
 3003788:	47e5                	li	a5,25
 300378a:	00e7f863          	bgeu	a5,a4,300379a <IRQ_SetPriority+0x26>
 300378e:	fec42703          	lw	a4,-20(s0)
 3003792:	07200793          	li	a5,114
 3003796:	00e7fc63          	bgeu	a5,a4,30037ae <IRQ_SetPriority+0x3a>
 300379a:	18c00593          	li	a1,396
 300379e:	030107b7          	lui	a5,0x3010
 30037a2:	14c78513          	addi	a0,a5,332 # 301014c <g_crgIpMatch+0x2ac>
 30037a6:	d98ff0ef          	jal	ra,3002d3e <AssertErrorLog>
 30037aa:	4789                	li	a5,2
 30037ac:	a81d                	j	30037e2 <IRQ_SetPriority+0x6e>
 30037ae:	fe842783          	lw	a5,-24(s0)
 30037b2:	c791                	beqz	a5,30037be <IRQ_SetPriority+0x4a>
 30037b4:	fe842703          	lw	a4,-24(s0)
 30037b8:	47bd                	li	a5,15
 30037ba:	00e7fc63          	bgeu	a5,a4,30037d2 <IRQ_SetPriority+0x5e>
 30037be:	18d00593          	li	a1,397
 30037c2:	030107b7          	lui	a5,0x3010
 30037c6:	14c78513          	addi	a0,a5,332 # 301014c <g_crgIpMatch+0x2ac>
 30037ca:	d74ff0ef          	jal	ra,3002d3e <AssertErrorLog>
 30037ce:	4795                	li	a5,5
 30037d0:	a809                	j	30037e2 <IRQ_SetPriority+0x6e>
 30037d2:	fec42783          	lw	a5,-20(s0)
 30037d6:	1799                	addi	a5,a5,-26
 30037d8:	fe842583          	lw	a1,-24(s0)
 30037dc:	853e                	mv	a0,a5
 30037de:	3941                	jal	ra,300346e <IRQ_SetLocalPriority>
 30037e0:	4781                	li	a5,0
 30037e2:	853e                	mv	a0,a5
 30037e4:	40f2                	lw	ra,28(sp)
 30037e6:	4462                	lw	s0,24(sp)
 30037e8:	6105                	addi	sp,sp,32
 30037ea:	8082                	ret

030037ec <IRQ_DummyHandler>:
 30037ec:	1101                	addi	sp,sp,-32
 30037ee:	ce22                	sw	s0,28(sp)
 30037f0:	1000                	addi	s0,sp,32
 30037f2:	fea42623          	sw	a0,-20(s0)
 30037f6:	0001                	nop
 30037f8:	4472                	lw	s0,28(sp)
 30037fa:	6105                	addi	sp,sp,32
 30037fc:	8082                	ret

030037fe <IRQ_SetCallBack>:
 30037fe:	1101                	addi	sp,sp,-32
 3003800:	ce22                	sw	s0,28(sp)
 3003802:	1000                	addi	s0,sp,32
 3003804:	fea42623          	sw	a0,-20(s0)
 3003808:	feb42423          	sw	a1,-24(s0)
 300380c:	fec42223          	sw	a2,-28(s0)
 3003810:	040007b7          	lui	a5,0x4000
 3003814:	17478713          	addi	a4,a5,372 # 4000174 <g_irqCallbackFunc>
 3003818:	fec42783          	lw	a5,-20(s0)
 300381c:	078e                	slli	a5,a5,0x3
 300381e:	97ba                	add	a5,a5,a4
 3003820:	fe442703          	lw	a4,-28(s0)
 3003824:	c3d8                	sw	a4,4(a5)
 3003826:	040007b7          	lui	a5,0x4000
 300382a:	17478713          	addi	a4,a5,372 # 4000174 <g_irqCallbackFunc>
 300382e:	fec42783          	lw	a5,-20(s0)
 3003832:	078e                	slli	a5,a5,0x3
 3003834:	97ba                	add	a5,a5,a4
 3003836:	fe842703          	lw	a4,-24(s0)
 300383a:	c398                	sw	a4,0(a5)
 300383c:	0001                	nop
 300383e:	4472                	lw	s0,28(sp)
 3003840:	6105                	addi	sp,sp,32
 3003842:	8082                	ret

03003844 <IRQ_GetCpuPrivilege>:
 3003844:	1141                	addi	sp,sp,-16
 3003846:	c622                	sw	s0,12(sp)
 3003848:	0800                	addi	s0,sp,16
 300384a:	a861a783          	lw	a5,-1402(gp) # 4000170 <g_RiscvPrivMode>
 300384e:	e399                	bnez	a5,3003854 <IRQ_GetCpuPrivilege+0x10>
 3003850:	47a1                	li	a5,8
 3003852:	a011                	j	3003856 <IRQ_GetCpuPrivilege+0x12>
 3003854:	47ad                	li	a5,11
 3003856:	853e                	mv	a0,a5
 3003858:	4432                	lw	s0,12(sp)
 300385a:	0141                	addi	sp,sp,16
 300385c:	8082                	ret

0300385e <CAN_WaitTime>:
 300385e:	7179                	addi	sp,sp,-48
 3003860:	d606                	sw	ra,44(sp)
 3003862:	d422                	sw	s0,40(sp)
 3003864:	1800                	addi	s0,sp,48
 3003866:	fca42e23          	sw	a0,-36(s0)
 300386a:	fdc42783          	lw	a5,-36(s0)
 300386e:	439c                	lw	a5,0(a5)
 3003870:	853e                	mv	a0,a5
 3003872:	44b000ef          	jal	ra,30044bc <HAL_CRG_GetIpFreq>
 3003876:	872a                	mv	a4,a0
 3003878:	fdc42783          	lw	a5,-36(s0)
 300387c:	4bdc                	lw	a5,20(a5)
 300387e:	02f757b3          	divu	a5,a4,a5
 3003882:	fef42623          	sw	a5,-20(s0)
 3003886:	fdc42783          	lw	a5,-36(s0)
 300388a:	47d8                	lw	a4,12(a5)
 300388c:	fdc42783          	lw	a5,-36(s0)
 3003890:	4b9c                	lw	a5,16(a5)
 3003892:	97ba                	add	a5,a5,a4
 3003894:	0785                	addi	a5,a5,1
 3003896:	fec42703          	lw	a4,-20(s0)
 300389a:	02f757b3          	divu	a5,a4,a5
 300389e:	fef42423          	sw	a5,-24(s0)
 30038a2:	000f47b7          	lui	a5,0xf4
 30038a6:	24078713          	addi	a4,a5,576 # f4240 <FLASH_SIZE+0xd4244>
 30038aa:	fe842783          	lw	a5,-24(s0)
 30038ae:	02f75733          	divu	a4,a4,a5
 30038b2:	47ad                	li	a5,11
 30038b4:	02f707b3          	mul	a5,a4,a5
 30038b8:	fef42223          	sw	a5,-28(s0)
 30038bc:	fe442503          	lw	a0,-28(s0)
 30038c0:	cc0ff0ef          	jal	ra,3002d80 <BASE_FUNC_DelayUs>
 30038c4:	0001                	nop
 30038c6:	50b2                	lw	ra,44(sp)
 30038c8:	5422                	lw	s0,40(sp)
 30038ca:	6145                	addi	sp,sp,48
 30038cc:	8082                	ret

030038ce <CAN_AutoRetrans>:
 30038ce:	1101                	addi	sp,sp,-32
 30038d0:	ce22                	sw	s0,28(sp)
 30038d2:	1000                	addi	s0,sp,32
 30038d4:	fea42623          	sw	a0,-20(s0)
 30038d8:	fec42783          	lw	a5,-20(s0)
 30038dc:	02c7c783          	lbu	a5,44(a5)
 30038e0:	0017c793          	xori	a5,a5,1
 30038e4:	9f81                	uxtb	a5
 30038e6:	cb89                	beqz	a5,30038f8 <CAN_AutoRetrans+0x2a>
 30038e8:	fec42783          	lw	a5,-20(s0)
 30038ec:	4398                	lw	a4,0(a5)
 30038ee:	431c                	lw	a5,0(a4)
 30038f0:	0207e793          	ori	a5,a5,32
 30038f4:	c31c                	sw	a5,0(a4)
 30038f6:	a801                	j	3003906 <CAN_AutoRetrans+0x38>
 30038f8:	fec42783          	lw	a5,-20(s0)
 30038fc:	4398                	lw	a4,0(a5)
 30038fe:	431c                	lw	a5,0(a4)
 3003900:	fdf7f793          	andi	a5,a5,-33
 3003904:	c31c                	sw	a5,0(a4)
 3003906:	0001                	nop
 3003908:	4472                	lw	s0,28(sp)
 300390a:	6105                	addi	sp,sp,32
 300390c:	8082                	ret

0300390e <HAL_CAN_Init>:
 300390e:	7179                	addi	sp,sp,-48
 3003910:	d606                	sw	ra,44(sp)
 3003912:	d422                	sw	s0,40(sp)
 3003914:	1800                	addi	s0,sp,48
 3003916:	fca42e23          	sw	a0,-36(s0)
 300391a:	fdc42783          	lw	a5,-36(s0)
 300391e:	4398                	lw	a4,0(a5)
 3003920:	431c                	lw	a5,0(a4)
 3003922:	0017e793          	ori	a5,a5,1
 3003926:	c31c                	sw	a5,0(a4)
 3003928:	fdc42783          	lw	a5,-36(s0)
 300392c:	439c                	lw	a5,0(a5)
 300392e:	0f300713          	li	a4,243
 3003932:	d3d8                	sw	a4,36(a5)
 3003934:	4785                	li	a5,1
 3003936:	fef42623          	sw	a5,-20(s0)
 300393a:	a815                	j	300396e <HAL_CAN_Init+0x60>
 300393c:	fdc42783          	lw	a5,-36(s0)
 3003940:	439c                	lw	a5,0(a5)
 3003942:	fec42703          	lw	a4,-20(s0)
 3003946:	d398                	sw	a4,32(a5)
 3003948:	fdc42783          	lw	a5,-36(s0)
 300394c:	439c                	lw	a5,0(a5)
 300394e:	539c                	lw	a5,32(a5)
 3003950:	83bd                	srli	a5,a5,0xf
 3003952:	8b85                	andi	a5,a5,1
 3003954:	9f81                	uxtb	a5
 3003956:	fef42023          	sw	a5,-32(s0)
 300395a:	fe042703          	lw	a4,-32(s0)
 300395e:	4785                	li	a5,1
 3003960:	fef704e3          	beq	a4,a5,3003948 <HAL_CAN_Init+0x3a>
 3003964:	fec42783          	lw	a5,-20(s0)
 3003968:	0785                	addi	a5,a5,1
 300396a:	fef42623          	sw	a5,-20(s0)
 300396e:	fec42703          	lw	a4,-20(s0)
 3003972:	02000793          	li	a5,32
 3003976:	fce7d3e3          	bge	a5,a4,300393c <HAL_CAN_Init+0x2e>
 300397a:	fdc42783          	lw	a5,-36(s0)
 300397e:	439c                	lw	a5,0(a5)
 3003980:	04100713          	li	a4,65
 3003984:	c398                	sw	a4,0(a5)
 3003986:	fdc42783          	lw	a5,-36(s0)
 300398a:	4bdc                	lw	a5,20(a5)
 300398c:	17fd                	addi	a5,a5,-1
 300398e:	fef42223          	sw	a5,-28(s0)
 3003992:	fdc42783          	lw	a5,-36(s0)
 3003996:	4f9c                	lw	a5,24(a5)
 3003998:	17fd                	addi	a5,a5,-1
 300399a:	079a                	slli	a5,a5,0x6
 300399c:	fe442703          	lw	a4,-28(s0)
 30039a0:	8fd9                	or	a5,a5,a4
 30039a2:	fef42223          	sw	a5,-28(s0)
 30039a6:	fdc42783          	lw	a5,-36(s0)
 30039aa:	47dc                	lw	a5,12(a5)
 30039ac:	17fd                	addi	a5,a5,-1
 30039ae:	07a2                	slli	a5,a5,0x8
 30039b0:	fe442703          	lw	a4,-28(s0)
 30039b4:	8fd9                	or	a5,a5,a4
 30039b6:	fef42223          	sw	a5,-28(s0)
 30039ba:	fdc42783          	lw	a5,-36(s0)
 30039be:	4b9c                	lw	a5,16(a5)
 30039c0:	17fd                	addi	a5,a5,-1
 30039c2:	07b2                	slli	a5,a5,0xc
 30039c4:	fe442703          	lw	a4,-28(s0)
 30039c8:	8fd9                	or	a5,a5,a4
 30039ca:	fef42223          	sw	a5,-28(s0)
 30039ce:	fdc42783          	lw	a5,-36(s0)
 30039d2:	439c                	lw	a5,0(a5)
 30039d4:	fe442703          	lw	a4,-28(s0)
 30039d8:	c7d8                	sw	a4,12(a5)
 30039da:	fdc42783          	lw	a5,-36(s0)
 30039de:	439c                	lw	a5,0(a5)
 30039e0:	472d                	li	a4,11
 30039e2:	c398                	sw	a4,0(a5)
 30039e4:	fdc42503          	lw	a0,-36(s0)
 30039e8:	35dd                	jal	ra,30038ce <CAN_AutoRetrans>
 30039ea:	fdc42783          	lw	a5,-36(s0)
 30039ee:	43d8                	lw	a4,4(a5)
 30039f0:	4785                	li	a5,1
 30039f2:	08f71063          	bne	a4,a5,3003a72 <HAL_CAN_Init+0x164>
 30039f6:	fdc42783          	lw	a5,-36(s0)
 30039fa:	479c                	lw	a5,8(a5)
 30039fc:	cbbd                	beqz	a5,3003a72 <HAL_CAN_Init+0x164>
 30039fe:	fdc42783          	lw	a5,-36(s0)
 3003a02:	4398                	lw	a4,0(a5)
 3003a04:	431c                	lw	a5,0(a4)
 3003a06:	0807e793          	ori	a5,a5,128
 3003a0a:	c31c                	sw	a5,0(a4)
 3003a0c:	fdc42783          	lw	a5,-36(s0)
 3003a10:	479c                	lw	a5,8(a5)
 3003a12:	4394                	lw	a3,0(a5)
 3003a14:	fdc42783          	lw	a5,-36(s0)
 3003a18:	4398                	lw	a4,0(a5)
 3003a1a:	87b6                	mv	a5,a3
 3003a1c:	8b85                	andi	a5,a5,1
 3003a1e:	0ff7f693          	andi	a3,a5,255
 3003a22:	4b5c                	lw	a5,20(a4)
 3003a24:	8a85                	andi	a3,a3,1
 3003a26:	0692                	slli	a3,a3,0x4
 3003a28:	9bbd                	andi	a5,a5,-17
 3003a2a:	8fd5                	or	a5,a5,a3
 3003a2c:	cb5c                	sw	a5,20(a4)
 3003a2e:	fdc42783          	lw	a5,-36(s0)
 3003a32:	479c                	lw	a5,8(a5)
 3003a34:	43d4                	lw	a3,4(a5)
 3003a36:	fdc42783          	lw	a5,-36(s0)
 3003a3a:	4398                	lw	a4,0(a5)
 3003a3c:	87b6                	mv	a5,a3
 3003a3e:	8b85                	andi	a5,a5,1
 3003a40:	0ff7f693          	andi	a3,a5,255
 3003a44:	4b5c                	lw	a5,20(a4)
 3003a46:	8a85                	andi	a3,a3,1
 3003a48:	068e                	slli	a3,a3,0x3
 3003a4a:	9bdd                	andi	a5,a5,-9
 3003a4c:	8fd5                	or	a5,a5,a3
 3003a4e:	cb5c                	sw	a5,20(a4)
 3003a50:	fdc42783          	lw	a5,-36(s0)
 3003a54:	479c                	lw	a5,8(a5)
 3003a56:	4794                	lw	a3,8(a5)
 3003a58:	fdc42783          	lw	a5,-36(s0)
 3003a5c:	4398                	lw	a4,0(a5)
 3003a5e:	87b6                	mv	a5,a3
 3003a60:	8b85                	andi	a5,a5,1
 3003a62:	0ff7f693          	andi	a3,a5,255
 3003a66:	4b5c                	lw	a5,20(a4)
 3003a68:	8a85                	andi	a3,a3,1
 3003a6a:	068a                	slli	a3,a3,0x2
 3003a6c:	9bed                	andi	a5,a5,-5
 3003a6e:	8fd5                	or	a5,a5,a3
 3003a70:	cb5c                	sw	a5,20(a4)
 3003a72:	fdc42783          	lw	a5,-36(s0)
 3003a76:	4398                	lw	a4,0(a5)
 3003a78:	431c                	lw	a5,0(a4)
 3003a7a:	9bf9                	andi	a5,a5,-2
 3003a7c:	c31c                	sw	a5,0(a4)
 3003a7e:	4785                	li	a5,1
 3003a80:	fef42423          	sw	a5,-24(s0)
 3003a84:	a815                	j	3003ab8 <HAL_CAN_Init+0x1aa>
 3003a86:	fe842703          	lw	a4,-24(s0)
 3003a8a:	47e1                	li	a5,24
 3003a8c:	00e7c863          	blt	a5,a4,3003a9c <HAL_CAN_Init+0x18e>
 3003a90:	fe842783          	lw	a5,-24(s0)
 3003a94:	85be                	mv	a1,a5
 3003a96:	fdc42503          	lw	a0,-36(s0)
 3003a9a:	2091                	jal	ra,3003ade <CAN_ConfigReadReq>
 3003a9c:	fe842783          	lw	a5,-24(s0)
 3003aa0:	17fd                	addi	a5,a5,-1
 3003aa2:	e2218713          	addi	a4,gp,-478 # 400050c <g_msgObj>
 3003aa6:	078a                	slli	a5,a5,0x2
 3003aa8:	97ba                	add	a5,a5,a4
 3003aaa:	0007a023          	sw	zero,0(a5)
 3003aae:	fe842783          	lw	a5,-24(s0)
 3003ab2:	0785                	addi	a5,a5,1
 3003ab4:	fef42423          	sw	a5,-24(s0)
 3003ab8:	fe842703          	lw	a4,-24(s0)
 3003abc:	02000793          	li	a5,32
 3003ac0:	fce7d3e3          	bge	a5,a4,3003a86 <HAL_CAN_Init+0x178>
 3003ac4:	fdc42503          	lw	a0,-36(s0)
 3003ac8:	3b59                	jal	ra,300385e <CAN_WaitTime>
 3003aca:	fdc42783          	lw	a5,-36(s0)
 3003ace:	4705                	li	a4,1
 3003ad0:	cfd8                	sw	a4,28(a5)
 3003ad2:	4781                	li	a5,0
 3003ad4:	853e                	mv	a0,a5
 3003ad6:	50b2                	lw	ra,44(sp)
 3003ad8:	5422                	lw	s0,40(sp)
 3003ada:	6145                	addi	sp,sp,48
 3003adc:	8082                	ret

03003ade <CAN_ConfigReadReq>:
 3003ade:	7179                	addi	sp,sp,-48
 3003ae0:	d622                	sw	s0,44(sp)
 3003ae2:	1800                	addi	s0,sp,48
 3003ae4:	fca42e23          	sw	a0,-36(s0)
 3003ae8:	fcb42c23          	sw	a1,-40(s0)
 3003aec:	4785                	li	a5,1
 3003aee:	fef42623          	sw	a5,-20(s0)
 3003af2:	fd842783          	lw	a5,-40(s0)
 3003af6:	17fd                	addi	a5,a5,-1
 3003af8:	fec42703          	lw	a4,-20(s0)
 3003afc:	00f717b3          	sll	a5,a4,a5
 3003b00:	fef42623          	sw	a5,-20(s0)
 3003b04:	91a1a703          	lw	a4,-1766(gp) # 4000004 <g_stdRecvMap>
 3003b08:	fec42783          	lw	a5,-20(s0)
 3003b0c:	8ff9                	and	a5,a5,a4
 3003b0e:	cf89                	beqz	a5,3003b28 <CAN_ConfigReadReq+0x4a>
 3003b10:	fdc42783          	lw	a5,-36(s0)
 3003b14:	439c                	lw	a5,0(a5)
 3003b16:	6721                	lui	a4,0x8
 3003b18:	08e7aa23          	sw	a4,148(a5)
 3003b1c:	fdc42783          	lw	a5,-36(s0)
 3003b20:	439c                	lw	a5,0(a5)
 3003b22:	0807a823          	sw	zero,144(a5)
 3003b26:	a02d                	j	3003b50 <CAN_ConfigReadReq+0x72>
 3003b28:	91e1a703          	lw	a4,-1762(gp) # 4000008 <g_extRecvMap>
 3003b2c:	fec42783          	lw	a5,-20(s0)
 3003b30:	8ff9                	and	a5,a5,a4
 3003b32:	cf89                	beqz	a5,3003b4c <CAN_ConfigReadReq+0x6e>
 3003b34:	fdc42783          	lw	a5,-36(s0)
 3003b38:	439c                	lw	a5,0(a5)
 3003b3a:	6731                	lui	a4,0xc
 3003b3c:	08e7aa23          	sw	a4,148(a5)
 3003b40:	fdc42783          	lw	a5,-36(s0)
 3003b44:	439c                	lw	a5,0(a5)
 3003b46:	0807a823          	sw	zero,144(a5)
 3003b4a:	a019                	j	3003b50 <CAN_ConfigReadReq+0x72>
 3003b4c:	4785                	li	a5,1
 3003b4e:	a0bd                	j	3003bbc <CAN_ConfigReadReq+0xde>
 3003b50:	fdc42783          	lw	a5,-36(s0)
 3003b54:	439c                	lw	a5,0(a5)
 3003b56:	6731                	lui	a4,0xc
 3003b58:	08e7a623          	sw	a4,140(a5)
 3003b5c:	fdc42783          	lw	a5,-36(s0)
 3003b60:	439c                	lw	a5,0(a5)
 3003b62:	0807a423          	sw	zero,136(a5)
 3003b66:	fdc42783          	lw	a5,-36(s0)
 3003b6a:	439c                	lw	a5,0(a5)
 3003b6c:	6705                	lui	a4,0x1
 3003b6e:	48870713          	addi	a4,a4,1160 # 1488 <__bss_size__+0x824>
 3003b72:	08e7ac23          	sw	a4,152(a5)
 3003b76:	fdc42783          	lw	a5,-36(s0)
 3003b7a:	439c                	lw	a5,0(a5)
 3003b7c:	0f300713          	li	a4,243
 3003b80:	08e7a223          	sw	a4,132(a5)
 3003b84:	fdc42783          	lw	a5,-36(s0)
 3003b88:	4398                	lw	a4,0(a5)
 3003b8a:	fd842783          	lw	a5,-40(s0)
 3003b8e:	03f7f793          	andi	a5,a5,63
 3003b92:	0ff7f693          	andi	a3,a5,255
 3003b96:	08072783          	lw	a5,128(a4)
 3003b9a:	03f6f693          	andi	a3,a3,63
 3003b9e:	fc07f793          	andi	a5,a5,-64
 3003ba2:	8fd5                	or	a5,a5,a3
 3003ba4:	08f72023          	sw	a5,128(a4)
 3003ba8:	fdc42783          	lw	a5,-36(s0)
 3003bac:	4398                	lw	a4,0(a5)
 3003bae:	08072783          	lw	a5,128(a4)
 3003bb2:	66a1                	lui	a3,0x8
 3003bb4:	8fd5                	or	a5,a5,a3
 3003bb6:	08f72023          	sw	a5,128(a4)
 3003bba:	4781                	li	a5,0
 3003bbc:	853e                	mv	a0,a5
 3003bbe:	5432                	lw	s0,44(sp)
 3003bc0:	6145                	addi	sp,sp,48
 3003bc2:	8082                	ret

03003bc4 <DCL_SYSCTRL_CrgWriteProtectionDisable>:
 3003bc4:	1141                	addi	sp,sp,-16
 3003bc6:	c622                	sw	s0,12(sp)
 3003bc8:	0800                	addi	s0,sp,16
 3003bca:	101007b7          	lui	a5,0x10100
 3003bce:	43f8                	lw	a4,68(a5)
 3003bd0:	67c1                	lui	a5,0x10
 3003bd2:	17f9                	addi	a5,a5,-2 # fffe <RAM_SIZE+0xaffe>
 3003bd4:	00f776b3          	and	a3,a4,a5
 3003bd8:	101007b7          	lui	a5,0x10100
 3003bdc:	ea510737          	lui	a4,0xea510
 3003be0:	9736                	add	a4,a4,a3
 3003be2:	c3f8                	sw	a4,68(a5)
 3003be4:	0001                	nop
 3003be6:	4432                	lw	s0,12(sp)
 3003be8:	0141                	addi	sp,sp,16
 3003bea:	8082                	ret

03003bec <DCL_SYSCTRL_CrgWriteProtectionEnable>:
 3003bec:	1141                	addi	sp,sp,-16
 3003bee:	c622                	sw	s0,12(sp)
 3003bf0:	0800                	addi	s0,sp,16
 3003bf2:	101007b7          	lui	a5,0x10100
 3003bf6:	43f8                	lw	a4,68(a5)
 3003bf8:	67c1                	lui	a5,0x10
 3003bfa:	17fd                	addi	a5,a5,-1 # ffff <RAM_SIZE+0xafff>
 3003bfc:	8ff9                	and	a5,a5,a4
 3003bfe:	0017e693          	ori	a3,a5,1
 3003c02:	101007b7          	lui	a5,0x10100
 3003c06:	ea510737          	lui	a4,0xea510
 3003c0a:	9736                	add	a4,a4,a3
 3003c0c:	c3f8                	sw	a4,68(a5)
 3003c0e:	0001                	nop
 3003c10:	4432                	lw	s0,12(sp)
 3003c12:	0141                	addi	sp,sp,16
 3003c14:	8082                	ret

03003c16 <IsCrgPllRefClkSelect>:
 3003c16:	1101                	addi	sp,sp,-32
 3003c18:	ce22                	sw	s0,28(sp)
 3003c1a:	1000                	addi	s0,sp,32
 3003c1c:	fea42623          	sw	a0,-20(s0)
 3003c20:	fec42783          	lw	a5,-20(s0)
 3003c24:	c791                	beqz	a5,3003c30 <IsCrgPllRefClkSelect+0x1a>
 3003c26:	fec42703          	lw	a4,-20(s0)
 3003c2a:	4785                	li	a5,1
 3003c2c:	00f71463          	bne	a4,a5,3003c34 <IsCrgPllRefClkSelect+0x1e>
 3003c30:	4785                	li	a5,1
 3003c32:	a011                	j	3003c36 <IsCrgPllRefClkSelect+0x20>
 3003c34:	4781                	li	a5,0
 3003c36:	8b85                	andi	a5,a5,1
 3003c38:	9f81                	uxtb	a5
 3003c3a:	853e                	mv	a0,a5
 3003c3c:	4472                	lw	s0,28(sp)
 3003c3e:	6105                	addi	sp,sp,32
 3003c40:	8082                	ret

03003c42 <IsCrgPllPreDiv>:
 3003c42:	1101                	addi	sp,sp,-32
 3003c44:	ce22                	sw	s0,28(sp)
 3003c46:	1000                	addi	s0,sp,32
 3003c48:	fea42623          	sw	a0,-20(s0)
 3003c4c:	fec42783          	lw	a5,-20(s0)
 3003c50:	0087b793          	sltiu	a5,a5,8
 3003c54:	9f81                	uxtb	a5
 3003c56:	853e                	mv	a0,a5
 3003c58:	4472                	lw	s0,28(sp)
 3003c5a:	6105                	addi	sp,sp,32
 3003c5c:	8082                	ret

03003c5e <IsCrgPllPostDiv>:
 3003c5e:	1101                	addi	sp,sp,-32
 3003c60:	ce22                	sw	s0,28(sp)
 3003c62:	1000                	addi	s0,sp,32
 3003c64:	fea42623          	sw	a0,-20(s0)
 3003c68:	fec42783          	lw	a5,-20(s0)
 3003c6c:	0087b793          	sltiu	a5,a5,8
 3003c70:	9f81                	uxtb	a5
 3003c72:	853e                	mv	a0,a5
 3003c74:	4472                	lw	s0,28(sp)
 3003c76:	6105                	addi	sp,sp,32
 3003c78:	8082                	ret

03003c7a <IsCrgPllPostDiv2>:
 3003c7a:	1101                	addi	sp,sp,-32
 3003c7c:	ce22                	sw	s0,28(sp)
 3003c7e:	1000                	addi	s0,sp,32
 3003c80:	fea42623          	sw	a0,-20(s0)
 3003c84:	fec42783          	lw	a5,-20(s0)
